ARM GAS  C:\Users\grgcz\AppData\Local\Temp\ccHl8fYU.s 			page 1


   1              		.cpu cortex-m4
   2              		.eabi_attribute 27, 1
   3              		.eabi_attribute 28, 1
   4              		.eabi_attribute 20, 1
   5              		.eabi_attribute 21, 1
   6              		.eabi_attribute 23, 3
   7              		.eabi_attribute 24, 1
   8              		.eabi_attribute 25, 1
   9              		.eabi_attribute 26, 1
  10              		.eabi_attribute 30, 1
  11              		.eabi_attribute 34, 1
  12              		.eabi_attribute 18, 4
  13              		.file	"pb_encode.c"
  14              		.text
  15              	.Ltext0:
  16              		.cfi_sections	.debug_frame
  17              		.section	.text.buf_write,"ax",%progbits
  18              		.align	1
  19              		.arch armv7e-m
  20              		.syntax unified
  21              		.thumb
  22              		.thumb_func
  23              		.fpu fpv4-sp-d16
  25              	buf_write:
  26              	.LVL0:
  27              	.LFB0:
  28              		.file 1 "Src/pb_encode.c"
   1:Src/pb_encode.c **** /* pb_encode.c -- encode a protobuf using minimal resources
   2:Src/pb_encode.c ****  *
   3:Src/pb_encode.c ****  * 2011 Petteri Aimonen <jpa@kapsi.fi>
   4:Src/pb_encode.c ****  */
   5:Src/pb_encode.c **** 
   6:Src/pb_encode.c **** #include "pb.h"
   7:Src/pb_encode.c **** #include "pb_encode.h"
   8:Src/pb_encode.c **** #include "pb_common.h"
   9:Src/pb_encode.c **** 
  10:Src/pb_encode.c **** /* Use the GCC warn_unused_result attribute to check that all return values
  11:Src/pb_encode.c ****  * are propagated correctly. On other compilers and gcc before 3.4.0 just
  12:Src/pb_encode.c ****  * ignore the annotation.
  13:Src/pb_encode.c ****  */
  14:Src/pb_encode.c **** #if !defined(__GNUC__) || ( __GNUC__ < 3) || (__GNUC__ == 3 && __GNUC_MINOR__ < 4)
  15:Src/pb_encode.c ****     #define checkreturn
  16:Src/pb_encode.c **** #else
  17:Src/pb_encode.c ****     #define checkreturn __attribute__((warn_unused_result))
  18:Src/pb_encode.c **** #endif
  19:Src/pb_encode.c **** 
  20:Src/pb_encode.c **** /**************************************
  21:Src/pb_encode.c ****  * Declarations internal to this file *
  22:Src/pb_encode.c ****  **************************************/
  23:Src/pb_encode.c **** typedef bool (*pb_encoder_t)(pb_ostream_t *stream, const pb_field_t *field, const void *src) checkr
  24:Src/pb_encode.c **** 
  25:Src/pb_encode.c **** static bool checkreturn buf_write(pb_ostream_t *stream, const pb_byte_t *buf, size_t count);
  26:Src/pb_encode.c **** static bool checkreturn encode_array(pb_ostream_t *stream, const pb_field_t *field, const void *pDa
  27:Src/pb_encode.c **** static bool checkreturn encode_field(pb_ostream_t *stream, const pb_field_t *field, const void *pDa
  28:Src/pb_encode.c **** static bool checkreturn default_extension_encoder(pb_ostream_t *stream, const pb_extension_t *exten
  29:Src/pb_encode.c **** static bool checkreturn encode_extension_field(pb_ostream_t *stream, const pb_field_t *field, const
  30:Src/pb_encode.c **** static void *pb_const_cast(const void *p);
ARM GAS  C:\Users\grgcz\AppData\Local\Temp\ccHl8fYU.s 			page 2


  31:Src/pb_encode.c **** static bool checkreturn pb_enc_varint(pb_ostream_t *stream, const pb_field_t *field, const void *sr
  32:Src/pb_encode.c **** static bool checkreturn pb_enc_uvarint(pb_ostream_t *stream, const pb_field_t *field, const void *s
  33:Src/pb_encode.c **** static bool checkreturn pb_enc_svarint(pb_ostream_t *stream, const pb_field_t *field, const void *s
  34:Src/pb_encode.c **** static bool checkreturn pb_enc_fixed32(pb_ostream_t *stream, const pb_field_t *field, const void *s
  35:Src/pb_encode.c **** static bool checkreturn pb_enc_fixed64(pb_ostream_t *stream, const pb_field_t *field, const void *s
  36:Src/pb_encode.c **** static bool checkreturn pb_enc_bytes(pb_ostream_t *stream, const pb_field_t *field, const void *src
  37:Src/pb_encode.c **** static bool checkreturn pb_enc_string(pb_ostream_t *stream, const pb_field_t *field, const void *sr
  38:Src/pb_encode.c **** static bool checkreturn pb_enc_submessage(pb_ostream_t *stream, const pb_field_t *field, const void
  39:Src/pb_encode.c **** static bool checkreturn pb_enc_fixed_length_bytes(pb_ostream_t *stream, const pb_field_t *field, co
  40:Src/pb_encode.c **** 
  41:Src/pb_encode.c **** #ifdef PB_WITHOUT_64BIT
  42:Src/pb_encode.c **** #define pb_int64_t int32_t
  43:Src/pb_encode.c **** #define pb_uint64_t uint32_t
  44:Src/pb_encode.c **** 
  45:Src/pb_encode.c **** static bool checkreturn pb_encode_negative_varint(pb_ostream_t *stream, pb_uint64_t value);
  46:Src/pb_encode.c **** #else
  47:Src/pb_encode.c **** #define pb_int64_t int64_t
  48:Src/pb_encode.c **** #define pb_uint64_t uint64_t
  49:Src/pb_encode.c **** #endif
  50:Src/pb_encode.c **** 
  51:Src/pb_encode.c **** /* --- Function pointers to field encoders ---
  52:Src/pb_encode.c ****  * Order in the array must match pb_action_t LTYPE numbering.
  53:Src/pb_encode.c ****  */
  54:Src/pb_encode.c **** static const pb_encoder_t PB_ENCODERS[PB_LTYPES_COUNT] = {
  55:Src/pb_encode.c ****     &pb_enc_varint,
  56:Src/pb_encode.c ****     &pb_enc_uvarint,
  57:Src/pb_encode.c ****     &pb_enc_svarint,
  58:Src/pb_encode.c ****     &pb_enc_fixed32,
  59:Src/pb_encode.c ****     &pb_enc_fixed64,
  60:Src/pb_encode.c ****     
  61:Src/pb_encode.c ****     &pb_enc_bytes,
  62:Src/pb_encode.c ****     &pb_enc_string,
  63:Src/pb_encode.c ****     &pb_enc_submessage,
  64:Src/pb_encode.c ****     NULL, /* extensions */
  65:Src/pb_encode.c ****     &pb_enc_fixed_length_bytes
  66:Src/pb_encode.c **** };
  67:Src/pb_encode.c **** 
  68:Src/pb_encode.c **** /*******************************
  69:Src/pb_encode.c ****  * pb_ostream_t implementation *
  70:Src/pb_encode.c ****  *******************************/
  71:Src/pb_encode.c **** 
  72:Src/pb_encode.c **** static bool checkreturn buf_write(pb_ostream_t *stream, const pb_byte_t *buf, size_t count)
  73:Src/pb_encode.c **** {
  29              		.loc 1 73 1 view -0
  30              		.cfi_startproc
  31              		@ args = 0, pretend = 0, frame = 0
  32              		@ frame_needed = 0, uses_anonymous_args = 0
  33              		@ link register save eliminated.
  34              		.loc 1 73 1 is_stmt 0 view .LVU1
  35 0000 10B4     		push	{r4}
  36              	.LCFI0:
  37              		.cfi_def_cfa_offset 4
  38              		.cfi_offset 4, -4
  74:Src/pb_encode.c ****     size_t i;
  39              		.loc 1 74 5 is_stmt 1 view .LVU2
  75:Src/pb_encode.c ****     pb_byte_t *dest = (pb_byte_t*)stream->state;
  40              		.loc 1 75 5 view .LVU3
ARM GAS  C:\Users\grgcz\AppData\Local\Temp\ccHl8fYU.s 			page 3


  41              		.loc 1 75 16 is_stmt 0 view .LVU4
  42 0002 4468     		ldr	r4, [r0, #4]
  43              	.LVL1:
  76:Src/pb_encode.c ****     stream->state = dest + count;
  44              		.loc 1 76 5 is_stmt 1 view .LVU5
  45              		.loc 1 76 26 is_stmt 0 view .LVU6
  46 0004 A318     		adds	r3, r4, r2
  47              		.loc 1 76 19 view .LVU7
  48 0006 4360     		str	r3, [r0, #4]
  77:Src/pb_encode.c ****     
  78:Src/pb_encode.c ****     for (i = 0; i < count; i++)
  49              		.loc 1 78 5 is_stmt 1 view .LVU8
  50              	.LVL2:
  51              		.loc 1 78 12 is_stmt 0 view .LVU9
  52 0008 0023     		movs	r3, #0
  53              	.LVL3:
  54              	.L2:
  55              		.loc 1 78 5 discriminator 1 view .LVU10
  56 000a 9342     		cmp	r3, r2
  57 000c 03D2     		bcs	.L5
  79:Src/pb_encode.c ****         dest[i] = buf[i];
  58              		.loc 1 79 9 is_stmt 1 discriminator 3 view .LVU11
  59              		.loc 1 79 22 is_stmt 0 discriminator 3 view .LVU12
  60 000e C85C     		ldrb	r0, [r1, r3]	@ zero_extendqisi2
  61              		.loc 1 79 17 discriminator 3 view .LVU13
  62 0010 E054     		strb	r0, [r4, r3]
  78:Src/pb_encode.c ****         dest[i] = buf[i];
  63              		.loc 1 78 29 discriminator 3 view .LVU14
  64 0012 0133     		adds	r3, r3, #1
  65              	.LVL4:
  78:Src/pb_encode.c ****         dest[i] = buf[i];
  66              		.loc 1 78 29 discriminator 3 view .LVU15
  67 0014 F9E7     		b	.L2
  68              	.L5:
  80:Src/pb_encode.c ****     
  81:Src/pb_encode.c ****     return true;
  69              		.loc 1 81 5 is_stmt 1 view .LVU16
  82:Src/pb_encode.c **** }
  70              		.loc 1 82 1 is_stmt 0 view .LVU17
  71 0016 0120     		movs	r0, #1
  72 0018 5DF8044B 		ldr	r4, [sp], #4
  73              	.LCFI1:
  74              		.cfi_restore 4
  75              		.cfi_def_cfa_offset 0
  76              	.LVL5:
  77              		.loc 1 82 1 view .LVU18
  78 001c 7047     		bx	lr
  79              		.cfi_endproc
  80              	.LFE0:
  82              		.section	.text.encode_callback_field,"ax",%progbits
  83              		.align	1
  84              		.syntax unified
  85              		.thumb
  86              		.thumb_func
  87              		.fpu fpv4-sp-d16
  89              	encode_callback_field:
  90              	.LVL6:
ARM GAS  C:\Users\grgcz\AppData\Local\Temp\ccHl8fYU.s 			page 4


  91              	.LFB6:
  83:Src/pb_encode.c **** 
  84:Src/pb_encode.c **** pb_ostream_t pb_ostream_from_buffer(pb_byte_t *buf, size_t bufsize)
  85:Src/pb_encode.c **** {
  86:Src/pb_encode.c ****     pb_ostream_t stream;
  87:Src/pb_encode.c **** #ifdef PB_BUFFER_ONLY
  88:Src/pb_encode.c ****     stream.callback = (void*)1; /* Just a marker value */
  89:Src/pb_encode.c **** #else
  90:Src/pb_encode.c ****     stream.callback = &buf_write;
  91:Src/pb_encode.c **** #endif
  92:Src/pb_encode.c ****     stream.state = buf;
  93:Src/pb_encode.c ****     stream.max_size = bufsize;
  94:Src/pb_encode.c ****     stream.bytes_written = 0;
  95:Src/pb_encode.c **** #ifndef PB_NO_ERRMSG
  96:Src/pb_encode.c ****     stream.errmsg = NULL;
  97:Src/pb_encode.c **** #endif
  98:Src/pb_encode.c ****     return stream;
  99:Src/pb_encode.c **** }
 100:Src/pb_encode.c **** 
 101:Src/pb_encode.c **** bool checkreturn pb_write(pb_ostream_t *stream, const pb_byte_t *buf, size_t count)
 102:Src/pb_encode.c **** {
 103:Src/pb_encode.c ****     if (stream->callback != NULL)
 104:Src/pb_encode.c ****     {
 105:Src/pb_encode.c ****         if (stream->bytes_written + count > stream->max_size)
 106:Src/pb_encode.c ****             PB_RETURN_ERROR(stream, "stream full");
 107:Src/pb_encode.c **** 
 108:Src/pb_encode.c **** #ifdef PB_BUFFER_ONLY
 109:Src/pb_encode.c ****         if (!buf_write(stream, buf, count))
 110:Src/pb_encode.c ****             PB_RETURN_ERROR(stream, "io error");
 111:Src/pb_encode.c **** #else        
 112:Src/pb_encode.c ****         if (!stream->callback(stream, buf, count))
 113:Src/pb_encode.c ****             PB_RETURN_ERROR(stream, "io error");
 114:Src/pb_encode.c **** #endif
 115:Src/pb_encode.c ****     }
 116:Src/pb_encode.c ****     
 117:Src/pb_encode.c ****     stream->bytes_written += count;
 118:Src/pb_encode.c ****     return true;
 119:Src/pb_encode.c **** }
 120:Src/pb_encode.c **** 
 121:Src/pb_encode.c **** /*************************
 122:Src/pb_encode.c ****  * Encode a single field *
 123:Src/pb_encode.c ****  *************************/
 124:Src/pb_encode.c **** 
 125:Src/pb_encode.c **** /* Encode a static array. Handles the size calculations and possible packing. */
 126:Src/pb_encode.c **** static bool checkreturn encode_array(pb_ostream_t *stream, const pb_field_t *field,
 127:Src/pb_encode.c ****                          const void *pData, size_t count, pb_encoder_t func)
 128:Src/pb_encode.c **** {
 129:Src/pb_encode.c ****     size_t i;
 130:Src/pb_encode.c ****     const void *p;
 131:Src/pb_encode.c ****     size_t size;
 132:Src/pb_encode.c ****     
 133:Src/pb_encode.c ****     if (count == 0)
 134:Src/pb_encode.c ****         return true;
 135:Src/pb_encode.c **** 
 136:Src/pb_encode.c ****     if (PB_ATYPE(field->type) != PB_ATYPE_POINTER && count > field->array_size)
 137:Src/pb_encode.c ****         PB_RETURN_ERROR(stream, "array max size exceeded");
 138:Src/pb_encode.c ****     
ARM GAS  C:\Users\grgcz\AppData\Local\Temp\ccHl8fYU.s 			page 5


 139:Src/pb_encode.c ****     /* We always pack arrays if the datatype allows it. */
 140:Src/pb_encode.c ****     if (PB_LTYPE(field->type) <= PB_LTYPE_LAST_PACKABLE)
 141:Src/pb_encode.c ****     {
 142:Src/pb_encode.c ****         if (!pb_encode_tag(stream, PB_WT_STRING, field->tag))
 143:Src/pb_encode.c ****             return false;
 144:Src/pb_encode.c ****         
 145:Src/pb_encode.c ****         /* Determine the total size of packed array. */
 146:Src/pb_encode.c ****         if (PB_LTYPE(field->type) == PB_LTYPE_FIXED32)
 147:Src/pb_encode.c ****         {
 148:Src/pb_encode.c ****             size = 4 * count;
 149:Src/pb_encode.c ****         }
 150:Src/pb_encode.c ****         else if (PB_LTYPE(field->type) == PB_LTYPE_FIXED64)
 151:Src/pb_encode.c ****         {
 152:Src/pb_encode.c ****             size = 8 * count;
 153:Src/pb_encode.c ****         }
 154:Src/pb_encode.c ****         else
 155:Src/pb_encode.c ****         { 
 156:Src/pb_encode.c ****             pb_ostream_t sizestream = PB_OSTREAM_SIZING;
 157:Src/pb_encode.c ****             p = pData;
 158:Src/pb_encode.c ****             for (i = 0; i < count; i++)
 159:Src/pb_encode.c ****             {
 160:Src/pb_encode.c ****                 if (!func(&sizestream, field, p))
 161:Src/pb_encode.c ****                     return false;
 162:Src/pb_encode.c ****                 p = (const char*)p + field->data_size;
 163:Src/pb_encode.c ****             }
 164:Src/pb_encode.c ****             size = sizestream.bytes_written;
 165:Src/pb_encode.c ****         }
 166:Src/pb_encode.c ****         
 167:Src/pb_encode.c ****         if (!pb_encode_varint(stream, (pb_uint64_t)size))
 168:Src/pb_encode.c ****             return false;
 169:Src/pb_encode.c ****         
 170:Src/pb_encode.c ****         if (stream->callback == NULL)
 171:Src/pb_encode.c ****             return pb_write(stream, NULL, size); /* Just sizing.. */
 172:Src/pb_encode.c ****         
 173:Src/pb_encode.c ****         /* Write the data */
 174:Src/pb_encode.c ****         p = pData;
 175:Src/pb_encode.c ****         for (i = 0; i < count; i++)
 176:Src/pb_encode.c ****         {
 177:Src/pb_encode.c ****             if (!func(stream, field, p))
 178:Src/pb_encode.c ****                 return false;
 179:Src/pb_encode.c ****             p = (const char*)p + field->data_size;
 180:Src/pb_encode.c ****         }
 181:Src/pb_encode.c ****     }
 182:Src/pb_encode.c ****     else
 183:Src/pb_encode.c ****     {
 184:Src/pb_encode.c ****         p = pData;
 185:Src/pb_encode.c ****         for (i = 0; i < count; i++)
 186:Src/pb_encode.c ****         {
 187:Src/pb_encode.c ****             if (!pb_encode_tag_for_field(stream, field))
 188:Src/pb_encode.c ****                 return false;
 189:Src/pb_encode.c **** 
 190:Src/pb_encode.c ****             /* Normally the data is stored directly in the array entries, but
 191:Src/pb_encode.c ****              * for pointer-type string and bytes fields, the array entries are
 192:Src/pb_encode.c ****              * actually pointers themselves also. So we have to dereference once
 193:Src/pb_encode.c ****              * more to get to the actual data. */
 194:Src/pb_encode.c ****             if (PB_ATYPE(field->type) == PB_ATYPE_POINTER &&
 195:Src/pb_encode.c ****                 (PB_LTYPE(field->type) == PB_LTYPE_STRING ||
ARM GAS  C:\Users\grgcz\AppData\Local\Temp\ccHl8fYU.s 			page 6


 196:Src/pb_encode.c ****                  PB_LTYPE(field->type) == PB_LTYPE_BYTES))
 197:Src/pb_encode.c ****             {
 198:Src/pb_encode.c ****                 if (!func(stream, field, *(const void* const*)p))
 199:Src/pb_encode.c ****                     return false;
 200:Src/pb_encode.c ****             }
 201:Src/pb_encode.c ****             else
 202:Src/pb_encode.c ****             {
 203:Src/pb_encode.c ****                 if (!func(stream, field, p))
 204:Src/pb_encode.c ****                     return false;
 205:Src/pb_encode.c ****             }
 206:Src/pb_encode.c ****             p = (const char*)p + field->data_size;
 207:Src/pb_encode.c ****         }
 208:Src/pb_encode.c ****     }
 209:Src/pb_encode.c ****     
 210:Src/pb_encode.c ****     return true;
 211:Src/pb_encode.c **** }
 212:Src/pb_encode.c **** 
 213:Src/pb_encode.c **** /* In proto3, all fields are optional and are only encoded if their value is "non-zero".
 214:Src/pb_encode.c ****  * This function implements the check for the zero value. */
 215:Src/pb_encode.c **** static bool pb_check_proto3_default_value(const pb_field_t *field, const void *pData)
 216:Src/pb_encode.c **** {
 217:Src/pb_encode.c ****     pb_type_t type = field->type;
 218:Src/pb_encode.c ****     const void *pSize = (const char*)pData + field->size_offset;
 219:Src/pb_encode.c **** 
 220:Src/pb_encode.c ****     if (PB_HTYPE(type) == PB_HTYPE_REQUIRED)
 221:Src/pb_encode.c ****     {
 222:Src/pb_encode.c ****         /* Required proto2 fields inside proto3 submessage, pretty rare case */
 223:Src/pb_encode.c ****         return false;
 224:Src/pb_encode.c ****     }
 225:Src/pb_encode.c ****     else if (PB_HTYPE(type) == PB_HTYPE_REPEATED)
 226:Src/pb_encode.c ****     {
 227:Src/pb_encode.c ****         /* Repeated fields inside proto3 submessage: present if count != 0 */
 228:Src/pb_encode.c ****         return *(const pb_size_t*)pSize == 0;
 229:Src/pb_encode.c ****     }
 230:Src/pb_encode.c ****     else if (PB_HTYPE(type) == PB_HTYPE_ONEOF)
 231:Src/pb_encode.c ****     {
 232:Src/pb_encode.c ****         /* Oneof fields */
 233:Src/pb_encode.c ****         return *(const pb_size_t*)pSize == 0;
 234:Src/pb_encode.c ****     }
 235:Src/pb_encode.c ****     else if (PB_HTYPE(type) == PB_HTYPE_OPTIONAL && field->size_offset)
 236:Src/pb_encode.c ****     {
 237:Src/pb_encode.c ****         /* Proto2 optional fields inside proto3 submessage */
 238:Src/pb_encode.c ****         return *(const bool*)pSize == false;
 239:Src/pb_encode.c ****     }
 240:Src/pb_encode.c **** 
 241:Src/pb_encode.c ****     /* Rest is proto3 singular fields */
 242:Src/pb_encode.c **** 
 243:Src/pb_encode.c ****     if (PB_ATYPE(type) == PB_ATYPE_STATIC)
 244:Src/pb_encode.c ****     {
 245:Src/pb_encode.c ****         if (PB_LTYPE(type) == PB_LTYPE_BYTES)
 246:Src/pb_encode.c ****         {
 247:Src/pb_encode.c ****             const pb_bytes_array_t *bytes = (const pb_bytes_array_t*)pData;
 248:Src/pb_encode.c ****             return bytes->size == 0;
 249:Src/pb_encode.c ****         }
 250:Src/pb_encode.c ****         else if (PB_LTYPE(type) == PB_LTYPE_STRING)
 251:Src/pb_encode.c ****         {
 252:Src/pb_encode.c ****             return *(const char*)pData == '\0';
ARM GAS  C:\Users\grgcz\AppData\Local\Temp\ccHl8fYU.s 			page 7


 253:Src/pb_encode.c ****         }
 254:Src/pb_encode.c ****         else if (PB_LTYPE(type) == PB_LTYPE_FIXED_LENGTH_BYTES)
 255:Src/pb_encode.c ****         {
 256:Src/pb_encode.c ****             /* Fixed length bytes is only empty if its length is fixed
 257:Src/pb_encode.c ****              * as 0. Which would be pretty strange, but we can check
 258:Src/pb_encode.c ****              * it anyway. */
 259:Src/pb_encode.c ****             return field->data_size == 0;
 260:Src/pb_encode.c ****         }
 261:Src/pb_encode.c ****         else if (PB_LTYPE(type) == PB_LTYPE_SUBMESSAGE)
 262:Src/pb_encode.c ****         {
 263:Src/pb_encode.c ****             /* Check all fields in the submessage to find if any of them
 264:Src/pb_encode.c ****              * are non-zero. The comparison cannot be done byte-per-byte
 265:Src/pb_encode.c ****              * because the C struct may contain padding bytes that must
 266:Src/pb_encode.c ****              * be skipped.
 267:Src/pb_encode.c ****              */
 268:Src/pb_encode.c ****             pb_field_iter_t iter;
 269:Src/pb_encode.c ****             if (pb_field_iter_begin(&iter, (const pb_field_t*)field->ptr, pb_const_cast(pData)))
 270:Src/pb_encode.c ****             {
 271:Src/pb_encode.c ****                 do
 272:Src/pb_encode.c ****                 {
 273:Src/pb_encode.c ****                     if (!pb_check_proto3_default_value(iter.pos, iter.pData))
 274:Src/pb_encode.c ****                     {
 275:Src/pb_encode.c ****                         return false;
 276:Src/pb_encode.c ****                     }
 277:Src/pb_encode.c ****                 } while (pb_field_iter_next(&iter));
 278:Src/pb_encode.c ****             }
 279:Src/pb_encode.c ****             return true;
 280:Src/pb_encode.c ****         }
 281:Src/pb_encode.c ****     }
 282:Src/pb_encode.c ****     
 283:Src/pb_encode.c **** 	{
 284:Src/pb_encode.c **** 	    /* Catch-all branch that does byte-per-byte comparison for zero value.
 285:Src/pb_encode.c **** 	     *
 286:Src/pb_encode.c **** 	     * This is for all pointer fields, and for static PB_LTYPE_VARINT,
 287:Src/pb_encode.c **** 	     * UVARINT, SVARINT, FIXED32, FIXED64, EXTENSION fields, and also
 288:Src/pb_encode.c **** 	     * callback fields. These all have integer or pointer value which
 289:Src/pb_encode.c **** 	     * can be compared with 0.
 290:Src/pb_encode.c **** 	     */
 291:Src/pb_encode.c **** 	    pb_size_t i;
 292:Src/pb_encode.c **** 	    const char *p = (const char*)pData;
 293:Src/pb_encode.c **** 	    for (i = 0; i < field->data_size; i++)
 294:Src/pb_encode.c **** 	    {
 295:Src/pb_encode.c **** 	        if (p[i] != 0)
 296:Src/pb_encode.c **** 	        {
 297:Src/pb_encode.c **** 	            return false;
 298:Src/pb_encode.c **** 	        }
 299:Src/pb_encode.c **** 	    }
 300:Src/pb_encode.c **** 
 301:Src/pb_encode.c **** 	    return true;
 302:Src/pb_encode.c **** 	}
 303:Src/pb_encode.c **** }
 304:Src/pb_encode.c **** 
 305:Src/pb_encode.c **** /* Encode a field with static or pointer allocation, i.e. one whose data
 306:Src/pb_encode.c ****  * is available to the encoder directly. */
 307:Src/pb_encode.c **** static bool checkreturn encode_basic_field(pb_ostream_t *stream,
 308:Src/pb_encode.c ****     const pb_field_t *field, const void *pData)
 309:Src/pb_encode.c **** {
ARM GAS  C:\Users\grgcz\AppData\Local\Temp\ccHl8fYU.s 			page 8


 310:Src/pb_encode.c ****     pb_encoder_t func;
 311:Src/pb_encode.c ****     bool implicit_has;
 312:Src/pb_encode.c ****     const void *pSize = &implicit_has;
 313:Src/pb_encode.c ****     
 314:Src/pb_encode.c ****     func = PB_ENCODERS[PB_LTYPE(field->type)];
 315:Src/pb_encode.c ****     
 316:Src/pb_encode.c ****     if (field->size_offset)
 317:Src/pb_encode.c ****     {
 318:Src/pb_encode.c ****         /* Static optional, repeated or oneof field */
 319:Src/pb_encode.c ****         pSize = (const char*)pData + field->size_offset;
 320:Src/pb_encode.c ****     }
 321:Src/pb_encode.c ****     else if (PB_HTYPE(field->type) == PB_HTYPE_OPTIONAL)
 322:Src/pb_encode.c ****     {
 323:Src/pb_encode.c ****         /* Proto3 style field, optional but without explicit has_ field. */
 324:Src/pb_encode.c ****         implicit_has = !pb_check_proto3_default_value(field, pData);
 325:Src/pb_encode.c ****     }
 326:Src/pb_encode.c ****     else
 327:Src/pb_encode.c ****     {
 328:Src/pb_encode.c ****         /* Required field, always present */
 329:Src/pb_encode.c ****         implicit_has = true;
 330:Src/pb_encode.c ****     }
 331:Src/pb_encode.c **** 
 332:Src/pb_encode.c ****     if (PB_ATYPE(field->type) == PB_ATYPE_POINTER)
 333:Src/pb_encode.c ****     {
 334:Src/pb_encode.c ****         /* pData is a pointer to the field, which contains pointer to
 335:Src/pb_encode.c ****          * the data. If the 2nd pointer is NULL, it is interpreted as if
 336:Src/pb_encode.c ****          * the has_field was false.
 337:Src/pb_encode.c ****          */
 338:Src/pb_encode.c ****         pData = *(const void* const*)pData;
 339:Src/pb_encode.c ****         implicit_has = (pData != NULL);
 340:Src/pb_encode.c ****     }
 341:Src/pb_encode.c **** 
 342:Src/pb_encode.c ****     switch (PB_HTYPE(field->type))
 343:Src/pb_encode.c ****     {
 344:Src/pb_encode.c ****         case PB_HTYPE_REQUIRED:
 345:Src/pb_encode.c ****             if (!pData)
 346:Src/pb_encode.c ****                 PB_RETURN_ERROR(stream, "missing required field");
 347:Src/pb_encode.c ****             if (!pb_encode_tag_for_field(stream, field))
 348:Src/pb_encode.c ****                 return false;
 349:Src/pb_encode.c ****             if (!func(stream, field, pData))
 350:Src/pb_encode.c ****                 return false;
 351:Src/pb_encode.c ****             break;
 352:Src/pb_encode.c ****         
 353:Src/pb_encode.c ****         case PB_HTYPE_OPTIONAL:
 354:Src/pb_encode.c ****             if (*(const bool*)pSize)
 355:Src/pb_encode.c ****             {
 356:Src/pb_encode.c ****                 if (!pb_encode_tag_for_field(stream, field))
 357:Src/pb_encode.c ****                     return false;
 358:Src/pb_encode.c ****             
 359:Src/pb_encode.c ****                 if (!func(stream, field, pData))
 360:Src/pb_encode.c ****                     return false;
 361:Src/pb_encode.c ****             }
 362:Src/pb_encode.c ****             break;
 363:Src/pb_encode.c ****         
 364:Src/pb_encode.c ****         case PB_HTYPE_REPEATED: {
 365:Src/pb_encode.c ****             pb_size_t count;
 366:Src/pb_encode.c ****             if (field->size_offset != 0) {
ARM GAS  C:\Users\grgcz\AppData\Local\Temp\ccHl8fYU.s 			page 9


 367:Src/pb_encode.c ****                 count = *(const pb_size_t*)pSize;
 368:Src/pb_encode.c ****             } else {
 369:Src/pb_encode.c ****                 count = field->array_size;
 370:Src/pb_encode.c ****             }
 371:Src/pb_encode.c ****             if (!encode_array(stream, field, pData, count, func))
 372:Src/pb_encode.c ****                 return false;
 373:Src/pb_encode.c ****             break;
 374:Src/pb_encode.c ****         }
 375:Src/pb_encode.c ****         
 376:Src/pb_encode.c ****         case PB_HTYPE_ONEOF:
 377:Src/pb_encode.c ****             if (*(const pb_size_t*)pSize == field->tag)
 378:Src/pb_encode.c ****             {
 379:Src/pb_encode.c ****                 if (!pb_encode_tag_for_field(stream, field))
 380:Src/pb_encode.c ****                     return false;
 381:Src/pb_encode.c **** 
 382:Src/pb_encode.c ****                 if (!func(stream, field, pData))
 383:Src/pb_encode.c ****                     return false;
 384:Src/pb_encode.c ****             }
 385:Src/pb_encode.c ****             break;
 386:Src/pb_encode.c ****             
 387:Src/pb_encode.c ****         default:
 388:Src/pb_encode.c ****             PB_RETURN_ERROR(stream, "invalid field type");
 389:Src/pb_encode.c ****     }
 390:Src/pb_encode.c ****     
 391:Src/pb_encode.c ****     return true;
 392:Src/pb_encode.c **** }
 393:Src/pb_encode.c **** 
 394:Src/pb_encode.c **** /* Encode a field with callback semantics. This means that a user function is
 395:Src/pb_encode.c ****  * called to provide and encode the actual data. */
 396:Src/pb_encode.c **** static bool checkreturn encode_callback_field(pb_ostream_t *stream,
 397:Src/pb_encode.c ****     const pb_field_t *field, const void *pData)
 398:Src/pb_encode.c **** {
  92              		.loc 1 398 1 is_stmt 1 view -0
  93              		.cfi_startproc
  94              		@ args = 0, pretend = 0, frame = 0
  95              		@ frame_needed = 0, uses_anonymous_args = 0
 399:Src/pb_encode.c ****     const pb_callback_t *callback = (const pb_callback_t*)pData;
  96              		.loc 1 399 5 view .LVU20
 400:Src/pb_encode.c ****     
 401:Src/pb_encode.c **** #ifdef PB_OLD_CALLBACK_STYLE
 402:Src/pb_encode.c ****     const void *arg = callback->arg;
 403:Src/pb_encode.c **** #else
 404:Src/pb_encode.c ****     void * const *arg = &(callback->arg);
  97              		.loc 1 404 5 view .LVU21
 405:Src/pb_encode.c **** #endif    
 406:Src/pb_encode.c ****     
 407:Src/pb_encode.c ****     if (callback->funcs.encode != NULL)
  98              		.loc 1 407 5 view .LVU22
  99              		.loc 1 407 24 is_stmt 0 view .LVU23
 100 0000 52F8043B 		ldr	r3, [r2], #4
 101              	.LVL7:
 102              		.loc 1 407 8 view .LVU24
 103 0004 63B1     		cbz	r3, .L9
 398:Src/pb_encode.c ****     const pb_callback_t *callback = (const pb_callback_t*)pData;
 104              		.loc 1 398 1 view .LVU25
 105 0006 10B5     		push	{r4, lr}
 106              	.LCFI2:
ARM GAS  C:\Users\grgcz\AppData\Local\Temp\ccHl8fYU.s 			page 10


 107              		.cfi_def_cfa_offset 8
 108              		.cfi_offset 4, -8
 109              		.cfi_offset 14, -4
 110 0008 0446     		mov	r4, r0
 408:Src/pb_encode.c ****     {
 409:Src/pb_encode.c ****         if (!callback->funcs.encode(stream, field, arg))
 111              		.loc 1 409 9 is_stmt 1 view .LVU26
 112              		.loc 1 409 14 is_stmt 0 view .LVU27
 113 000a 9847     		blx	r3
 114              	.LVL8:
 115              		.loc 1 409 12 view .LVU28
 116 000c 0346     		mov	r3, r0
 117 000e 08B1     		cbz	r0, .L14
 118              	.L7:
 410:Src/pb_encode.c ****             PB_RETURN_ERROR(stream, "callback error");
 411:Src/pb_encode.c ****     }
 412:Src/pb_encode.c ****     return true;
 413:Src/pb_encode.c **** }
 119              		.loc 1 413 1 view .LVU29
 120 0010 1846     		mov	r0, r3
 121 0012 10BD     		pop	{r4, pc}
 122              	.LVL9:
 123              	.L14:
 410:Src/pb_encode.c ****             PB_RETURN_ERROR(stream, "callback error");
 124              		.loc 1 410 13 is_stmt 1 view .LVU30
 125 0014 2269     		ldr	r2, [r4, #16]
 126 0016 0AB1     		cbz	r2, .L15
 127              	.L8:
 410:Src/pb_encode.c ****             PB_RETURN_ERROR(stream, "callback error");
 128              		.loc 1 410 13 is_stmt 0 discriminator 4 view .LVU31
 129 0018 2261     		str	r2, [r4, #16]
 130 001a F9E7     		b	.L7
 131              	.L15:
 410:Src/pb_encode.c ****             PB_RETURN_ERROR(stream, "callback error");
 132              		.loc 1 410 13 view .LVU32
 133 001c 024A     		ldr	r2, .L16
 134 001e FBE7     		b	.L8
 135              	.LVL10:
 136              	.L9:
 137              	.LCFI3:
 138              		.cfi_def_cfa_offset 0
 139              		.cfi_restore 4
 140              		.cfi_restore 14
 412:Src/pb_encode.c **** }
 141              		.loc 1 412 12 view .LVU33
 142 0020 0123     		movs	r3, #1
 143              		.loc 1 413 1 view .LVU34
 144 0022 1846     		mov	r0, r3
 145              	.LVL11:
 146              		.loc 1 413 1 view .LVU35
 147 0024 7047     		bx	lr
 148              	.L17:
 149 0026 00BF     		.align	2
 150              	.L16:
 151 0028 00000000 		.word	.LC0
 152              		.cfi_endproc
 153              	.LFE6:
ARM GAS  C:\Users\grgcz\AppData\Local\Temp\ccHl8fYU.s 			page 11


 155              		.section	.text.pb_const_cast,"ax",%progbits
 156              		.align	1
 157              		.syntax unified
 158              		.thumb
 159              		.thumb_func
 160              		.fpu fpv4-sp-d16
 162              	pb_const_cast:
 163              	.LVL12:
 164              	.LFB10:
 414:Src/pb_encode.c **** 
 415:Src/pb_encode.c **** /* Encode a single field of any callback or static type. */
 416:Src/pb_encode.c **** static bool checkreturn encode_field(pb_ostream_t *stream,
 417:Src/pb_encode.c ****     const pb_field_t *field, const void *pData)
 418:Src/pb_encode.c **** {
 419:Src/pb_encode.c ****     switch (PB_ATYPE(field->type))
 420:Src/pb_encode.c ****     {
 421:Src/pb_encode.c ****         case PB_ATYPE_STATIC:
 422:Src/pb_encode.c ****         case PB_ATYPE_POINTER:
 423:Src/pb_encode.c ****             return encode_basic_field(stream, field, pData);
 424:Src/pb_encode.c ****         
 425:Src/pb_encode.c ****         case PB_ATYPE_CALLBACK:
 426:Src/pb_encode.c ****             return encode_callback_field(stream, field, pData);
 427:Src/pb_encode.c ****         
 428:Src/pb_encode.c ****         default:
 429:Src/pb_encode.c ****             PB_RETURN_ERROR(stream, "invalid field type");
 430:Src/pb_encode.c ****     }
 431:Src/pb_encode.c **** }
 432:Src/pb_encode.c **** 
 433:Src/pb_encode.c **** /* Default handler for extension fields. Expects to have a pb_field_t
 434:Src/pb_encode.c ****  * pointer in the extension->type->arg field. */
 435:Src/pb_encode.c **** static bool checkreturn default_extension_encoder(pb_ostream_t *stream,
 436:Src/pb_encode.c ****     const pb_extension_t *extension)
 437:Src/pb_encode.c **** {
 438:Src/pb_encode.c ****     const pb_field_t *field = (const pb_field_t*)extension->type->arg;
 439:Src/pb_encode.c ****     
 440:Src/pb_encode.c ****     if (PB_ATYPE(field->type) == PB_ATYPE_POINTER)
 441:Src/pb_encode.c ****     {
 442:Src/pb_encode.c ****         /* For pointer extensions, the pointer is stored directly
 443:Src/pb_encode.c ****          * in the extension structure. This avoids having an extra
 444:Src/pb_encode.c ****          * indirection. */
 445:Src/pb_encode.c ****         return encode_field(stream, field, &extension->dest);
 446:Src/pb_encode.c ****     }
 447:Src/pb_encode.c ****     else
 448:Src/pb_encode.c ****     {
 449:Src/pb_encode.c ****         return encode_field(stream, field, extension->dest);
 450:Src/pb_encode.c ****     }
 451:Src/pb_encode.c **** }
 452:Src/pb_encode.c **** 
 453:Src/pb_encode.c **** /* Walk through all the registered extensions and give them a chance
 454:Src/pb_encode.c ****  * to encode themselves. */
 455:Src/pb_encode.c **** static bool checkreturn encode_extension_field(pb_ostream_t *stream,
 456:Src/pb_encode.c ****     const pb_field_t *field, const void *pData)
 457:Src/pb_encode.c **** {
 458:Src/pb_encode.c ****     const pb_extension_t *extension = *(const pb_extension_t* const *)pData;
 459:Src/pb_encode.c ****     PB_UNUSED(field);
 460:Src/pb_encode.c ****     
 461:Src/pb_encode.c ****     while (extension)
ARM GAS  C:\Users\grgcz\AppData\Local\Temp\ccHl8fYU.s 			page 12


 462:Src/pb_encode.c ****     {
 463:Src/pb_encode.c ****         bool status;
 464:Src/pb_encode.c ****         if (extension->type->encode)
 465:Src/pb_encode.c ****             status = extension->type->encode(stream, extension);
 466:Src/pb_encode.c ****         else
 467:Src/pb_encode.c ****             status = default_extension_encoder(stream, extension);
 468:Src/pb_encode.c **** 
 469:Src/pb_encode.c ****         if (!status)
 470:Src/pb_encode.c ****             return false;
 471:Src/pb_encode.c ****         
 472:Src/pb_encode.c ****         extension = extension->next;
 473:Src/pb_encode.c ****     }
 474:Src/pb_encode.c ****     
 475:Src/pb_encode.c ****     return true;
 476:Src/pb_encode.c **** }
 477:Src/pb_encode.c **** 
 478:Src/pb_encode.c **** /*********************
 479:Src/pb_encode.c ****  * Encode all fields *
 480:Src/pb_encode.c ****  *********************/
 481:Src/pb_encode.c **** 
 482:Src/pb_encode.c **** static void *pb_const_cast(const void *p)
 483:Src/pb_encode.c **** {
 165              		.loc 1 483 1 is_stmt 1 view -0
 166              		.cfi_startproc
 167              		@ args = 0, pretend = 0, frame = 0
 168              		@ frame_needed = 0, uses_anonymous_args = 0
 169              		@ link register save eliminated.
 484:Src/pb_encode.c ****     /* Note: this casts away const, in order to use the common field iterator
 485:Src/pb_encode.c ****      * logic for both encoding and decoding. */
 486:Src/pb_encode.c ****     union {
 170              		.loc 1 486 5 view .LVU37
 487:Src/pb_encode.c ****         void *p1;
 488:Src/pb_encode.c ****         const void *p2;
 489:Src/pb_encode.c ****     } t;
 490:Src/pb_encode.c ****     t.p2 = p;
 171              		.loc 1 490 5 view .LVU38
 491:Src/pb_encode.c ****     return t.p1;
 172              		.loc 1 491 5 view .LVU39
 492:Src/pb_encode.c **** }
 173              		.loc 1 492 1 is_stmt 0 view .LVU40
 174 0000 7047     		bx	lr
 175              		.cfi_endproc
 176              	.LFE10:
 178              		.section	.text.pb_check_proto3_default_value,"ax",%progbits
 179              		.align	1
 180              		.syntax unified
 181              		.thumb
 182              		.thumb_func
 183              		.fpu fpv4-sp-d16
 185              	pb_check_proto3_default_value:
 186              	.LVL13:
 187              	.LFB4:
 216:Src/pb_encode.c ****     pb_type_t type = field->type;
 188              		.loc 1 216 1 is_stmt 1 view -0
 189              		.cfi_startproc
 190              		@ args = 0, pretend = 0, frame = 24
 191              		@ frame_needed = 0, uses_anonymous_args = 0
ARM GAS  C:\Users\grgcz\AppData\Local\Temp\ccHl8fYU.s 			page 13


 216:Src/pb_encode.c ****     pb_type_t type = field->type;
 192              		.loc 1 216 1 is_stmt 0 view .LVU42
 193 0000 10B5     		push	{r4, lr}
 194              	.LCFI4:
 195              		.cfi_def_cfa_offset 8
 196              		.cfi_offset 4, -8
 197              		.cfi_offset 14, -4
 198 0002 86B0     		sub	sp, sp, #24
 199              	.LCFI5:
 200              		.cfi_def_cfa_offset 32
 217:Src/pb_encode.c ****     const void *pSize = (const char*)pData + field->size_offset;
 201              		.loc 1 217 5 is_stmt 1 view .LVU43
 217:Src/pb_encode.c ****     const void *pSize = (const char*)pData + field->size_offset;
 202              		.loc 1 217 15 is_stmt 0 view .LVU44
 203 0004 8378     		ldrb	r3, [r0, #2]	@ zero_extendqisi2
 204              	.LVL14:
 218:Src/pb_encode.c **** 
 205              		.loc 1 218 5 is_stmt 1 view .LVU45
 218:Src/pb_encode.c **** 
 206              		.loc 1 218 51 is_stmt 0 view .LVU46
 207 0006 B0F90540 		ldrsh	r4, [r0, #5]	@ unaligned
 208              	.LVL15:
 220:Src/pb_encode.c ****     {
 209              		.loc 1 220 5 is_stmt 1 view .LVU47
 220:Src/pb_encode.c ****     {
 210              		.loc 1 220 8 is_stmt 0 view .LVU48
 211 000a 13F03002 		ands	r2, r3, #48
 212 000e 58D0     		beq	.L33
 225:Src/pb_encode.c ****     {
 213              		.loc 1 225 10 is_stmt 1 view .LVU49
 225:Src/pb_encode.c ****     {
 214              		.loc 1 225 13 is_stmt 0 view .LVU50
 215 0010 202A     		cmp	r2, #32
 216 0012 12D0     		beq	.L38
 230:Src/pb_encode.c ****     {
 217              		.loc 1 230 10 is_stmt 1 view .LVU51
 230:Src/pb_encode.c ****     {
 218              		.loc 1 230 13 is_stmt 0 view .LVU52
 219 0014 302A     		cmp	r2, #48
 220 0016 15D0     		beq	.L39
 235:Src/pb_encode.c ****     {
 221              		.loc 1 235 10 is_stmt 1 view .LVU53
 235:Src/pb_encode.c ****     {
 222              		.loc 1 235 13 is_stmt 0 view .LVU54
 223 0018 102A     		cmp	r2, #16
 224 001a 18D0     		beq	.L40
 225              	.L23:
 243:Src/pb_encode.c ****     {
 226              		.loc 1 243 5 is_stmt 1 view .LVU55
 243:Src/pb_encode.c ****     {
 227              		.loc 1 243 8 is_stmt 0 view .LVU56
 228 001c 13F0C00F 		tst	r3, #192
 229 0020 43D1     		bne	.L34
 245:Src/pb_encode.c ****         {
 230              		.loc 1 245 9 is_stmt 1 view .LVU57
 231 0022 03F00F03 		and	r3, r3, #15
 232              	.LVL16:
ARM GAS  C:\Users\grgcz\AppData\Local\Temp\ccHl8fYU.s 			page 14


 245:Src/pb_encode.c ****         {
 233              		.loc 1 245 12 is_stmt 0 view .LVU58
 234 0026 052B     		cmp	r3, #5
 235 0028 17D0     		beq	.L41
 250:Src/pb_encode.c ****         {
 236              		.loc 1 250 14 is_stmt 1 view .LVU59
 250:Src/pb_encode.c ****         {
 237              		.loc 1 250 17 is_stmt 0 view .LVU60
 238 002a 062B     		cmp	r3, #6
 239 002c 1AD0     		beq	.L42
 254:Src/pb_encode.c ****         {
 240              		.loc 1 254 14 is_stmt 1 view .LVU61
 254:Src/pb_encode.c ****         {
 241              		.loc 1 254 17 is_stmt 0 view .LVU62
 242 002e 092B     		cmp	r3, #9
 243 0030 1DD0     		beq	.L43
 261:Src/pb_encode.c ****         {
 244              		.loc 1 261 14 is_stmt 1 view .LVU63
 261:Src/pb_encode.c ****         {
 245              		.loc 1 261 17 is_stmt 0 view .LVU64
 246 0032 072B     		cmp	r3, #7
 247 0034 21D0     		beq	.L44
 248 0036 0023     		movs	r3, #0
 249 0038 38E0     		b	.L31
 250              	.LVL17:
 251              	.L38:
 228:Src/pb_encode.c ****     }
 252              		.loc 1 228 9 is_stmt 1 view .LVU65
 228:Src/pb_encode.c ****     }
 253              		.loc 1 228 16 is_stmt 0 view .LVU66
 254 003a 0B5B     		ldrh	r3, [r1, r4]
 255              	.LVL18:
 228:Src/pb_encode.c ****     }
 256              		.loc 1 228 41 view .LVU67
 257 003c B3FA83F3 		clz	r3, r3
 258 0040 5B09     		lsrs	r3, r3, #5
 259 0042 3FE0     		b	.L20
 260              	.LVL19:
 261              	.L39:
 233:Src/pb_encode.c ****     }
 262              		.loc 1 233 9 is_stmt 1 view .LVU68
 233:Src/pb_encode.c ****     }
 263              		.loc 1 233 16 is_stmt 0 view .LVU69
 264 0044 0B5B     		ldrh	r3, [r1, r4]
 265              	.LVL20:
 233:Src/pb_encode.c ****     }
 266              		.loc 1 233 41 view .LVU70
 267 0046 B3FA83F3 		clz	r3, r3
 268 004a 5B09     		lsrs	r3, r3, #5
 269 004c 3AE0     		b	.L20
 270              	.LVL21:
 271              	.L40:
 235:Src/pb_encode.c ****     {
 272              		.loc 1 235 50 discriminator 1 view .LVU71
 273 004e 002C     		cmp	r4, #0
 274 0050 E4D0     		beq	.L23
 238:Src/pb_encode.c ****     }
ARM GAS  C:\Users\grgcz\AppData\Local\Temp\ccHl8fYU.s 			page 15


 275              		.loc 1 238 9 is_stmt 1 view .LVU72
 238:Src/pb_encode.c ****     }
 276              		.loc 1 238 16 is_stmt 0 view .LVU73
 277 0052 0B5D     		ldrb	r3, [r1, r4]	@ zero_extendqisi2
 278              	.LVL22:
 238:Src/pb_encode.c ****     }
 279              		.loc 1 238 9 view .LVU74
 280 0054 83F00103 		eor	r3, r3, #1
 238:Src/pb_encode.c ****     }
 281              		.loc 1 238 36 view .LVU75
 282 0058 34E0     		b	.L20
 283              	.L41:
 284              	.LBB2:
 247:Src/pb_encode.c ****             return bytes->size == 0;
 285              		.loc 1 247 13 is_stmt 1 view .LVU76
 286              	.LVL23:
 248:Src/pb_encode.c ****         }
 287              		.loc 1 248 13 view .LVU77
 248:Src/pb_encode.c ****         }
 288              		.loc 1 248 25 is_stmt 0 view .LVU78
 289 005a 0B88     		ldrh	r3, [r1]
 248:Src/pb_encode.c ****         }
 290              		.loc 1 248 32 view .LVU79
 291 005c B3FA83F3 		clz	r3, r3
 292 0060 5B09     		lsrs	r3, r3, #5
 293 0062 2FE0     		b	.L20
 294              	.LVL24:
 295              	.L42:
 248:Src/pb_encode.c ****         }
 296              		.loc 1 248 32 view .LVU80
 297              	.LBE2:
 252:Src/pb_encode.c ****         }
 298              		.loc 1 252 13 is_stmt 1 view .LVU81
 252:Src/pb_encode.c ****         }
 299              		.loc 1 252 20 is_stmt 0 view .LVU82
 300 0064 0B78     		ldrb	r3, [r1]	@ zero_extendqisi2
 252:Src/pb_encode.c ****         }
 301              		.loc 1 252 40 view .LVU83
 302 0066 B3FA83F3 		clz	r3, r3
 303 006a 5B09     		lsrs	r3, r3, #5
 304 006c 2AE0     		b	.L20
 305              	.L43:
 259:Src/pb_encode.c ****         }
 306              		.loc 1 259 13 is_stmt 1 view .LVU84
 259:Src/pb_encode.c ****         }
 307              		.loc 1 259 25 is_stmt 0 view .LVU85
 308 006e B0F80730 		ldrh	r3, [r0, #7]	@ unaligned
 259:Src/pb_encode.c ****         }
 309              		.loc 1 259 37 view .LVU86
 310 0072 B3FA83F3 		clz	r3, r3
 311 0076 5B09     		lsrs	r3, r3, #5
 312 0078 24E0     		b	.L20
 313              	.L44:
 314              	.LBB3:
 268:Src/pb_encode.c ****             if (pb_field_iter_begin(&iter, (const pb_field_t*)field->ptr, pb_const_cast(pData)))
 315              		.loc 1 268 13 is_stmt 1 view .LVU87
 269:Src/pb_encode.c ****             {
ARM GAS  C:\Users\grgcz\AppData\Local\Temp\ccHl8fYU.s 			page 16


 316              		.loc 1 269 13 view .LVU88
 269:Src/pb_encode.c ****             {
 317              		.loc 1 269 68 is_stmt 0 view .LVU89
 318 007a D0F80B40 		ldr	r4, [r0, #11]	@ unaligned
 319              	.LVL25:
 269:Src/pb_encode.c ****             {
 320              		.loc 1 269 17 view .LVU90
 321 007e 0846     		mov	r0, r1
 322              	.LVL26:
 269:Src/pb_encode.c ****             {
 323              		.loc 1 269 17 view .LVU91
 324 0080 FFF7FEFF 		bl	pb_const_cast
 325              	.LVL27:
 269:Src/pb_encode.c ****             {
 326              		.loc 1 269 17 view .LVU92
 327 0084 0246     		mov	r2, r0
 328 0086 2146     		mov	r1, r4
 329 0088 6846     		mov	r0, sp
 330 008a FFF7FEFF 		bl	pb_field_iter_begin
 331              	.LVL28:
 269:Src/pb_encode.c ****             {
 332              		.loc 1 269 16 view .LVU93
 333 008e 50B1     		cbz	r0, .L28
 334              	.L30:
 271:Src/pb_encode.c ****                 {
 335              		.loc 1 271 17 is_stmt 1 view .LVU94
 273:Src/pb_encode.c ****                     {
 336              		.loc 1 273 21 view .LVU95
 273:Src/pb_encode.c ****                     {
 337              		.loc 1 273 26 is_stmt 0 view .LVU96
 338 0090 0499     		ldr	r1, [sp, #16]
 339 0092 0198     		ldr	r0, [sp, #4]
 340 0094 FFF7B4FF 		bl	pb_check_proto3_default_value
 341              	.LVL29:
 273:Src/pb_encode.c ****                     {
 342              		.loc 1 273 24 view .LVU97
 343 0098 0346     		mov	r3, r0
 344 009a 98B1     		cbz	r0, .L20
 277:Src/pb_encode.c ****             }
 345              		.loc 1 277 26 view .LVU98
 346 009c 6846     		mov	r0, sp
 347 009e FFF7FEFF 		bl	pb_field_iter_next
 348              	.LVL30:
 277:Src/pb_encode.c ****             }
 349              		.loc 1 277 17 view .LVU99
 350 00a2 0028     		cmp	r0, #0
 351 00a4 F4D1     		bne	.L30
 352              	.L28:
 279:Src/pb_encode.c ****         }
 353              		.loc 1 279 13 is_stmt 1 view .LVU100
 279:Src/pb_encode.c ****         }
 354              		.loc 1 279 20 is_stmt 0 view .LVU101
 355 00a6 0123     		movs	r3, #1
 356 00a8 0CE0     		b	.L20
 357              	.LVL31:
 358              	.L34:
 279:Src/pb_encode.c ****         }
ARM GAS  C:\Users\grgcz\AppData\Local\Temp\ccHl8fYU.s 			page 17


 359              		.loc 1 279 20 view .LVU102
 360              	.LBE3:
 361 00aa 0023     		movs	r3, #0
 362              	.LVL32:
 363              	.L31:
 364              	.LBB4:
 293:Src/pb_encode.c **** 	    {
 365              		.loc 1 293 27 discriminator 1 view .LVU103
 366 00ac B0F80720 		ldrh	r2, [r0, #7]	@ unaligned
 293:Src/pb_encode.c **** 	    {
 367              		.loc 1 293 6 discriminator 1 view .LVU104
 368 00b0 9A42     		cmp	r2, r3
 369 00b2 04D9     		bls	.L45
 295:Src/pb_encode.c **** 	        {
 370              		.loc 1 295 10 is_stmt 1 view .LVU105
 295:Src/pb_encode.c **** 	        {
 371              		.loc 1 295 15 is_stmt 0 view .LVU106
 372 00b4 CA5C     		ldrb	r2, [r1, r3]	@ zero_extendqisi2
 295:Src/pb_encode.c **** 	        {
 373              		.loc 1 295 13 view .LVU107
 374 00b6 42B9     		cbnz	r2, .L36
 293:Src/pb_encode.c **** 	    {
 375              		.loc 1 293 41 discriminator 2 view .LVU108
 376 00b8 0133     		adds	r3, r3, #1
 377              	.LVL33:
 293:Src/pb_encode.c **** 	    {
 378              		.loc 1 293 41 discriminator 2 view .LVU109
 379 00ba 9BB2     		uxth	r3, r3
 380              	.LVL34:
 293:Src/pb_encode.c **** 	    {
 381              		.loc 1 293 41 discriminator 2 view .LVU110
 382 00bc F6E7     		b	.L31
 383              	.L45:
 301:Src/pb_encode.c **** 	}
 384              		.loc 1 301 13 view .LVU111
 385 00be 0123     		movs	r3, #1
 386              	.LVL35:
 301:Src/pb_encode.c **** 	}
 387              		.loc 1 301 13 view .LVU112
 388 00c0 00E0     		b	.L20
 389              	.LVL36:
 390              	.L33:
 301:Src/pb_encode.c **** 	}
 391              		.loc 1 301 13 view .LVU113
 392              	.LBE4:
 223:Src/pb_encode.c ****     }
 393              		.loc 1 223 16 view .LVU114
 394 00c2 0023     		movs	r3, #0
 395              	.LVL37:
 396              	.L20:
 303:Src/pb_encode.c **** 
 397              		.loc 1 303 1 discriminator 1 view .LVU115
 398 00c4 1846     		mov	r0, r3
 399 00c6 06B0     		add	sp, sp, #24
 400              	.LCFI6:
 401              		.cfi_remember_state
 402              		.cfi_def_cfa_offset 8
ARM GAS  C:\Users\grgcz\AppData\Local\Temp\ccHl8fYU.s 			page 18


 403              		@ sp needed
 404 00c8 10BD     		pop	{r4, pc}
 405              	.LVL38:
 406              	.L36:
 407              	.LCFI7:
 408              		.cfi_restore_state
 409              	.LBB5:
 297:Src/pb_encode.c **** 	        }
 410              		.loc 1 297 21 view .LVU116
 411 00ca 0023     		movs	r3, #0
 412              	.LVL39:
 297:Src/pb_encode.c **** 	        }
 413              		.loc 1 297 21 view .LVU117
 414 00cc FAE7     		b	.L20
 415              	.LBE5:
 416              		.cfi_endproc
 417              	.LFE4:
 419              		.section	.text.pb_ostream_from_buffer,"ax",%progbits
 420              		.align	1
 421              		.global	pb_ostream_from_buffer
 422              		.syntax unified
 423              		.thumb
 424              		.thumb_func
 425              		.fpu fpv4-sp-d16
 427              	pb_ostream_from_buffer:
 428              	.LVL40:
 429              	.LFB1:
  85:Src/pb_encode.c ****     pb_ostream_t stream;
 430              		.loc 1 85 1 is_stmt 1 view -0
 431              		.cfi_startproc
 432              		@ args = 0, pretend = 0, frame = 0
 433              		@ frame_needed = 0, uses_anonymous_args = 0
 434              		@ link register save eliminated.
  85:Src/pb_encode.c ****     pb_ostream_t stream;
 435              		.loc 1 85 1 is_stmt 0 view .LVU119
 436 0000 10B4     		push	{r4}
 437              	.LCFI8:
 438              		.cfi_def_cfa_offset 4
 439              		.cfi_offset 4, -4
  86:Src/pb_encode.c **** #ifdef PB_BUFFER_ONLY
 440              		.loc 1 86 5 is_stmt 1 view .LVU120
  90:Src/pb_encode.c **** #endif
 441              		.loc 1 90 5 view .LVU121
  90:Src/pb_encode.c **** #endif
 442              		.loc 1 90 21 is_stmt 0 view .LVU122
 443 0002 054C     		ldr	r4, .L48
 444 0004 0460     		str	r4, [r0]
  92:Src/pb_encode.c ****     stream.max_size = bufsize;
 445              		.loc 1 92 5 is_stmt 1 view .LVU123
  92:Src/pb_encode.c ****     stream.max_size = bufsize;
 446              		.loc 1 92 18 is_stmt 0 view .LVU124
 447 0006 4160     		str	r1, [r0, #4]
  93:Src/pb_encode.c ****     stream.bytes_written = 0;
 448              		.loc 1 93 5 is_stmt 1 view .LVU125
  93:Src/pb_encode.c ****     stream.bytes_written = 0;
 449              		.loc 1 93 21 is_stmt 0 view .LVU126
 450 0008 8260     		str	r2, [r0, #8]
ARM GAS  C:\Users\grgcz\AppData\Local\Temp\ccHl8fYU.s 			page 19


  94:Src/pb_encode.c **** #ifndef PB_NO_ERRMSG
 451              		.loc 1 94 5 is_stmt 1 view .LVU127
  94:Src/pb_encode.c **** #ifndef PB_NO_ERRMSG
 452              		.loc 1 94 26 is_stmt 0 view .LVU128
 453 000a 0022     		movs	r2, #0
 454              	.LVL41:
  94:Src/pb_encode.c **** #ifndef PB_NO_ERRMSG
 455              		.loc 1 94 26 view .LVU129
 456 000c C260     		str	r2, [r0, #12]
  96:Src/pb_encode.c **** #endif
 457              		.loc 1 96 5 is_stmt 1 view .LVU130
  96:Src/pb_encode.c **** #endif
 458              		.loc 1 96 19 is_stmt 0 view .LVU131
 459 000e 0261     		str	r2, [r0, #16]
  98:Src/pb_encode.c **** }
 460              		.loc 1 98 5 is_stmt 1 view .LVU132
  99:Src/pb_encode.c **** 
 461              		.loc 1 99 1 is_stmt 0 view .LVU133
 462 0010 5DF8044B 		ldr	r4, [sp], #4
 463              	.LCFI9:
 464              		.cfi_restore 4
 465              		.cfi_def_cfa_offset 0
 466 0014 7047     		bx	lr
 467              	.L49:
 468 0016 00BF     		.align	2
 469              	.L48:
 470 0018 00000000 		.word	buf_write
 471              		.cfi_endproc
 472              	.LFE1:
 474              		.section	.text.pb_write,"ax",%progbits
 475              		.align	1
 476              		.global	pb_write
 477              		.syntax unified
 478              		.thumb
 479              		.thumb_func
 480              		.fpu fpv4-sp-d16
 482              	pb_write:
 483              	.LVL42:
 484              	.LFB2:
 102:Src/pb_encode.c ****     if (stream->callback != NULL)
 485              		.loc 1 102 1 is_stmt 1 view -0
 486              		.cfi_startproc
 487              		@ args = 0, pretend = 0, frame = 0
 488              		@ frame_needed = 0, uses_anonymous_args = 0
 102:Src/pb_encode.c ****     if (stream->callback != NULL)
 489              		.loc 1 102 1 is_stmt 0 view .LVU135
 490 0000 70B5     		push	{r4, r5, r6, lr}
 491              	.LCFI10:
 492              		.cfi_def_cfa_offset 16
 493              		.cfi_offset 4, -16
 494              		.cfi_offset 5, -12
 495              		.cfi_offset 6, -8
 496              		.cfi_offset 14, -4
 497 0002 0446     		mov	r4, r0
 498 0004 1546     		mov	r5, r2
 103:Src/pb_encode.c ****     {
 499              		.loc 1 103 5 is_stmt 1 view .LVU136
ARM GAS  C:\Users\grgcz\AppData\Local\Temp\ccHl8fYU.s 			page 20


 103:Src/pb_encode.c ****     {
 500              		.loc 1 103 15 is_stmt 0 view .LVU137
 501 0006 0668     		ldr	r6, [r0]
 103:Src/pb_encode.c ****     {
 502              		.loc 1 103 8 view .LVU138
 503 0008 46B1     		cbz	r6, .L51
 105:Src/pb_encode.c ****             PB_RETURN_ERROR(stream, "stream full");
 504              		.loc 1 105 9 is_stmt 1 view .LVU139
 105:Src/pb_encode.c ****             PB_RETURN_ERROR(stream, "stream full");
 505              		.loc 1 105 19 is_stmt 0 view .LVU140
 506 000a C368     		ldr	r3, [r0, #12]
 105:Src/pb_encode.c ****             PB_RETURN_ERROR(stream, "stream full");
 507              		.loc 1 105 35 view .LVU141
 508 000c 1344     		add	r3, r3, r2
 105:Src/pb_encode.c ****             PB_RETURN_ERROR(stream, "stream full");
 509              		.loc 1 105 51 view .LVU142
 510 000e 8268     		ldr	r2, [r0, #8]
 511              	.LVL43:
 105:Src/pb_encode.c ****             PB_RETURN_ERROR(stream, "stream full");
 512              		.loc 1 105 12 view .LVU143
 513 0010 9342     		cmp	r3, r2
 514 0012 09D8     		bhi	.L57
 112:Src/pb_encode.c ****             PB_RETURN_ERROR(stream, "io error");
 515              		.loc 1 112 9 is_stmt 1 view .LVU144
 112:Src/pb_encode.c ****             PB_RETURN_ERROR(stream, "io error");
 516              		.loc 1 112 14 is_stmt 0 view .LVU145
 517 0014 2A46     		mov	r2, r5
 518 0016 B047     		blx	r6
 519              	.LVL44:
 112:Src/pb_encode.c ****             PB_RETURN_ERROR(stream, "io error");
 520              		.loc 1 112 12 view .LVU146
 521 0018 0346     		mov	r3, r0
 522 001a 60B1     		cbz	r0, .L58
 523              	.L51:
 117:Src/pb_encode.c ****     return true;
 524              		.loc 1 117 5 is_stmt 1 view .LVU147
 117:Src/pb_encode.c ****     return true;
 525              		.loc 1 117 27 is_stmt 0 view .LVU148
 526 001c E368     		ldr	r3, [r4, #12]
 527 001e 1D44     		add	r5, r5, r3
 528              	.LVL45:
 117:Src/pb_encode.c ****     return true;
 529              		.loc 1 117 27 view .LVU149
 530 0020 E560     		str	r5, [r4, #12]
 118:Src/pb_encode.c **** }
 531              		.loc 1 118 5 is_stmt 1 view .LVU150
 118:Src/pb_encode.c **** }
 532              		.loc 1 118 12 is_stmt 0 view .LVU151
 533 0022 0123     		movs	r3, #1
 534              	.L54:
 119:Src/pb_encode.c **** 
 535              		.loc 1 119 1 view .LVU152
 536 0024 1846     		mov	r0, r3
 537 0026 70BD     		pop	{r4, r5, r6, pc}
 538              	.LVL46:
 539              	.L57:
 106:Src/pb_encode.c **** 
ARM GAS  C:\Users\grgcz\AppData\Local\Temp\ccHl8fYU.s 			page 21


 540              		.loc 1 106 13 is_stmt 1 view .LVU153
 541 0028 0369     		ldr	r3, [r0, #16]
 542 002a 13B1     		cbz	r3, .L59
 543              	.L53:
 106:Src/pb_encode.c **** 
 544              		.loc 1 106 13 is_stmt 0 discriminator 4 view .LVU154
 545 002c 2361     		str	r3, [r4, #16]
 546 002e 0023     		movs	r3, #0
 547 0030 F8E7     		b	.L54
 548              	.L59:
 106:Src/pb_encode.c **** 
 549              		.loc 1 106 13 view .LVU155
 550 0032 044B     		ldr	r3, .L61
 551 0034 FAE7     		b	.L53
 552              	.LVL47:
 553              	.L58:
 113:Src/pb_encode.c **** #endif
 554              		.loc 1 113 13 is_stmt 1 view .LVU156
 555 0036 2269     		ldr	r2, [r4, #16]
 556 0038 0AB1     		cbz	r2, .L60
 557              	.L55:
 113:Src/pb_encode.c **** #endif
 558              		.loc 1 113 13 is_stmt 0 discriminator 4 view .LVU157
 559 003a 2261     		str	r2, [r4, #16]
 560 003c F2E7     		b	.L54
 561              	.L60:
 113:Src/pb_encode.c **** #endif
 562              		.loc 1 113 13 view .LVU158
 563 003e 024A     		ldr	r2, .L61+4
 564 0040 FBE7     		b	.L55
 565              	.L62:
 566 0042 00BF     		.align	2
 567              	.L61:
 568 0044 00000000 		.word	.LC1
 569 0048 0C000000 		.word	.LC2
 570              		.cfi_endproc
 571              	.LFE2:
 573              		.section	.text.pb_encode_varint,"ax",%progbits
 574              		.align	1
 575              		.global	pb_encode_varint
 576              		.syntax unified
 577              		.thumb
 578              		.thumb_func
 579              		.fpu fpv4-sp-d16
 581              	pb_encode_varint:
 582              	.LVL48:
 583              	.LFB15:
 493:Src/pb_encode.c **** 
 494:Src/pb_encode.c **** bool checkreturn pb_encode(pb_ostream_t *stream, const pb_field_t fields[], const void *src_struct)
 495:Src/pb_encode.c **** {
 496:Src/pb_encode.c ****     pb_field_iter_t iter;
 497:Src/pb_encode.c ****     if (!pb_field_iter_begin(&iter, fields, pb_const_cast(src_struct)))
 498:Src/pb_encode.c ****         return true; /* Empty message type */
 499:Src/pb_encode.c ****     
 500:Src/pb_encode.c ****     do {
 501:Src/pb_encode.c ****         if (PB_LTYPE(iter.pos->type) == PB_LTYPE_EXTENSION)
 502:Src/pb_encode.c ****         {
ARM GAS  C:\Users\grgcz\AppData\Local\Temp\ccHl8fYU.s 			page 22


 503:Src/pb_encode.c ****             /* Special case for the extension field placeholder */
 504:Src/pb_encode.c ****             if (!encode_extension_field(stream, iter.pos, iter.pData))
 505:Src/pb_encode.c ****                 return false;
 506:Src/pb_encode.c ****         }
 507:Src/pb_encode.c ****         else
 508:Src/pb_encode.c ****         {
 509:Src/pb_encode.c ****             /* Regular field */
 510:Src/pb_encode.c ****             if (!encode_field(stream, iter.pos, iter.pData))
 511:Src/pb_encode.c ****                 return false;
 512:Src/pb_encode.c ****         }
 513:Src/pb_encode.c ****     } while (pb_field_iter_next(&iter));
 514:Src/pb_encode.c ****     
 515:Src/pb_encode.c ****     return true;
 516:Src/pb_encode.c **** }
 517:Src/pb_encode.c **** 
 518:Src/pb_encode.c **** bool pb_encode_delimited(pb_ostream_t *stream, const pb_field_t fields[], const void *src_struct)
 519:Src/pb_encode.c **** {
 520:Src/pb_encode.c ****     return pb_encode_submessage(stream, fields, src_struct);
 521:Src/pb_encode.c **** }
 522:Src/pb_encode.c **** 
 523:Src/pb_encode.c **** bool pb_encode_nullterminated(pb_ostream_t *stream, const pb_field_t fields[], const void *src_stru
 524:Src/pb_encode.c **** {
 525:Src/pb_encode.c ****     const pb_byte_t zero = 0;
 526:Src/pb_encode.c **** 
 527:Src/pb_encode.c ****     if (!pb_encode(stream, fields, src_struct))
 528:Src/pb_encode.c ****         return false;
 529:Src/pb_encode.c **** 
 530:Src/pb_encode.c ****     return pb_write(stream, &zero, 1);
 531:Src/pb_encode.c **** }
 532:Src/pb_encode.c **** 
 533:Src/pb_encode.c **** bool pb_get_encoded_size(size_t *size, const pb_field_t fields[], const void *src_struct)
 534:Src/pb_encode.c **** {
 535:Src/pb_encode.c ****     pb_ostream_t stream = PB_OSTREAM_SIZING;
 536:Src/pb_encode.c ****     
 537:Src/pb_encode.c ****     if (!pb_encode(&stream, fields, src_struct))
 538:Src/pb_encode.c ****         return false;
 539:Src/pb_encode.c ****     
 540:Src/pb_encode.c ****     *size = stream.bytes_written;
 541:Src/pb_encode.c ****     return true;
 542:Src/pb_encode.c **** }
 543:Src/pb_encode.c **** 
 544:Src/pb_encode.c **** /********************
 545:Src/pb_encode.c ****  * Helper functions *
 546:Src/pb_encode.c ****  ********************/
 547:Src/pb_encode.c **** 
 548:Src/pb_encode.c **** #ifdef PB_WITHOUT_64BIT
 549:Src/pb_encode.c **** bool checkreturn pb_encode_negative_varint(pb_ostream_t *stream, pb_uint64_t value)
 550:Src/pb_encode.c **** {
 551:Src/pb_encode.c ****   pb_byte_t buffer[10];
 552:Src/pb_encode.c ****   size_t i = 0;
 553:Src/pb_encode.c ****   size_t compensation = 32;/* we need to compensate 32 bits all set to 1 */
 554:Src/pb_encode.c **** 
 555:Src/pb_encode.c ****   while (value)
 556:Src/pb_encode.c ****   {
 557:Src/pb_encode.c ****     buffer[i] = (pb_byte_t)((value & 0x7F) | 0x80);
 558:Src/pb_encode.c ****     value >>= 7;
 559:Src/pb_encode.c ****     if (compensation)
ARM GAS  C:\Users\grgcz\AppData\Local\Temp\ccHl8fYU.s 			page 23


 560:Src/pb_encode.c ****     {
 561:Src/pb_encode.c ****       /* re-set all the compensation bits we can or need */
 562:Src/pb_encode.c ****       size_t bits = compensation > 7 ? 7 : compensation;
 563:Src/pb_encode.c ****       value ^= (pb_uint64_t)((0xFFu >> (8 - bits)) << 25); /* set the number of bits needed on the 
 564:Src/pb_encode.c ****       compensation -= bits;
 565:Src/pb_encode.c ****     }
 566:Src/pb_encode.c ****     i++;
 567:Src/pb_encode.c ****   }
 568:Src/pb_encode.c ****   buffer[i - 1] &= 0x7F; /* Unset top bit on last byte */
 569:Src/pb_encode.c **** 
 570:Src/pb_encode.c ****   return pb_write(stream, buffer, i);
 571:Src/pb_encode.c **** }
 572:Src/pb_encode.c **** #endif
 573:Src/pb_encode.c **** 
 574:Src/pb_encode.c **** bool checkreturn pb_encode_varint(pb_ostream_t *stream, pb_uint64_t value)
 575:Src/pb_encode.c **** {
 584              		.loc 1 575 1 is_stmt 1 view -0
 585              		.cfi_startproc
 586              		@ args = 0, pretend = 0, frame = 16
 587              		@ frame_needed = 0, uses_anonymous_args = 0
 588              		.loc 1 575 1 is_stmt 0 view .LVU160
 589 0000 30B5     		push	{r4, r5, lr}
 590              	.LCFI11:
 591              		.cfi_def_cfa_offset 12
 592              		.cfi_offset 4, -12
 593              		.cfi_offset 5, -8
 594              		.cfi_offset 14, -4
 595 0002 85B0     		sub	sp, sp, #20
 596              	.LCFI12:
 597              		.cfi_def_cfa_offset 32
 576:Src/pb_encode.c ****     pb_byte_t buffer[10];
 598              		.loc 1 576 5 is_stmt 1 view .LVU161
 577:Src/pb_encode.c ****     size_t i = 0;
 599              		.loc 1 577 5 view .LVU162
 600              	.LVL49:
 578:Src/pb_encode.c ****     
 579:Src/pb_encode.c ****     if (value <= 0x7F)
 601              		.loc 1 579 5 view .LVU163
 602              		.loc 1 579 8 is_stmt 0 view .LVU164
 603 0004 002B     		cmp	r3, #0
 604 0006 08BF     		it	eq
 605 0008 802A     		cmpeq	r2, #128
 606 000a 11D3     		bcc	.L69
 577:Src/pb_encode.c ****     size_t i = 0;
 607              		.loc 1 577 12 view .LVU165
 608 000c 0024     		movs	r4, #0
 609              	.LVL50:
 610              	.L64:
 580:Src/pb_encode.c ****     {
 581:Src/pb_encode.c ****         pb_byte_t v = (pb_byte_t)value;
 582:Src/pb_encode.c ****         return pb_write(stream, &v, 1);
 583:Src/pb_encode.c ****     }
 584:Src/pb_encode.c ****     
 585:Src/pb_encode.c ****     while (value)
 611              		.loc 1 585 11 view .LVU166
 612 000e 52EA0301 		orrs	r1, r2, r3
 613 0012 15D0     		beq	.L70
ARM GAS  C:\Users\grgcz\AppData\Local\Temp\ccHl8fYU.s 			page 24


 586:Src/pb_encode.c ****     {
 587:Src/pb_encode.c ****         buffer[i] = (pb_byte_t)((value & 0x7F) | 0x80);
 614              		.loc 1 587 9 is_stmt 1 view .LVU167
 615              		.loc 1 587 21 is_stmt 0 view .LVU168
 616 0014 62F07F05 		orn	r5, r2, #127
 617              		.loc 1 587 19 view .LVU169
 618 0018 04A9     		add	r1, sp, #16
 619 001a 2144     		add	r1, r1, r4
 620 001c 01F80C5C 		strb	r5, [r1, #-12]
 588:Src/pb_encode.c ****         value >>= 7;
 621              		.loc 1 588 9 is_stmt 1 view .LVU170
 622              		.loc 1 588 15 is_stmt 0 view .LVU171
 623 0020 D109     		lsrs	r1, r2, #7
 624 0022 41EA4361 		orr	r1, r1, r3, lsl #25
 625 0026 DD09     		lsrs	r5, r3, #7
 626 0028 0A46     		mov	r2, r1
 627              	.LVL51:
 628              		.loc 1 588 15 view .LVU172
 629 002a 2B46     		mov	r3, r5
 630              	.LVL52:
 589:Src/pb_encode.c ****         i++;
 631              		.loc 1 589 9 is_stmt 1 view .LVU173
 632              		.loc 1 589 10 is_stmt 0 view .LVU174
 633 002c 0134     		adds	r4, r4, #1
 634              	.LVL53:
 635              		.loc 1 589 10 view .LVU175
 636 002e EEE7     		b	.L64
 637              	.LVL54:
 638              	.L69:
 639              	.LBB6:
 581:Src/pb_encode.c ****         return pb_write(stream, &v, 1);
 640              		.loc 1 581 9 is_stmt 1 view .LVU176
 581:Src/pb_encode.c ****         return pb_write(stream, &v, 1);
 641              		.loc 1 581 19 is_stmt 0 view .LVU177
 642 0030 8DF80320 		strb	r2, [sp, #3]
 582:Src/pb_encode.c ****     }
 643              		.loc 1 582 9 is_stmt 1 view .LVU178
 582:Src/pb_encode.c ****     }
 644              		.loc 1 582 16 is_stmt 0 view .LVU179
 645 0034 0122     		movs	r2, #1
 646              	.LVL55:
 582:Src/pb_encode.c ****     }
 647              		.loc 1 582 16 view .LVU180
 648 0036 0DF10301 		add	r1, sp, #3
 649 003a FFF7FEFF 		bl	pb_write
 650              	.LVL56:
 582:Src/pb_encode.c ****     }
 651              		.loc 1 582 16 view .LVU181
 652 003e 0CE0     		b	.L65
 653              	.LVL57:
 654              	.L70:
 582:Src/pb_encode.c ****     }
 655              		.loc 1 582 16 view .LVU182
 656              	.LBE6:
 590:Src/pb_encode.c ****     }
 591:Src/pb_encode.c ****     buffer[i-1] &= 0x7F; /* Unset top bit on last byte */
 657              		.loc 1 591 5 is_stmt 1 view .LVU183
ARM GAS  C:\Users\grgcz\AppData\Local\Temp\ccHl8fYU.s 			page 25


 658              		.loc 1 591 17 is_stmt 0 view .LVU184
 659 0040 631E     		subs	r3, r4, #1
 660 0042 04AA     		add	r2, sp, #16
 661              	.LVL58:
 662              		.loc 1 591 17 view .LVU185
 663 0044 1344     		add	r3, r3, r2
 664 0046 13F80C2C 		ldrb	r2, [r3, #-12]	@ zero_extendqisi2
 665 004a 02F07F02 		and	r2, r2, #127
 666 004e 03F80C2C 		strb	r2, [r3, #-12]
 592:Src/pb_encode.c ****     
 593:Src/pb_encode.c ****     return pb_write(stream, buffer, i);
 667              		.loc 1 593 5 is_stmt 1 view .LVU186
 668              		.loc 1 593 12 is_stmt 0 view .LVU187
 669 0052 2246     		mov	r2, r4
 670 0054 01A9     		add	r1, sp, #4
 671 0056 FFF7FEFF 		bl	pb_write
 672              	.LVL59:
 673              	.L65:
 594:Src/pb_encode.c **** }
 674              		.loc 1 594 1 discriminator 1 view .LVU188
 675 005a 05B0     		add	sp, sp, #20
 676              	.LCFI13:
 677              		.cfi_def_cfa_offset 12
 678              		@ sp needed
 679 005c 30BD     		pop	{r4, r5, pc}
 680              		.cfi_endproc
 681              	.LFE15:
 683              		.section	.text.pb_enc_uvarint,"ax",%progbits
 684              		.align	1
 685              		.syntax unified
 686              		.thumb
 687              		.thumb_func
 688              		.fpu fpv4-sp-d16
 690              	pb_enc_uvarint:
 691              	.LVL60:
 692              	.LFB24:
 595:Src/pb_encode.c **** 
 596:Src/pb_encode.c **** bool checkreturn pb_encode_svarint(pb_ostream_t *stream, pb_int64_t value)
 597:Src/pb_encode.c **** {
 598:Src/pb_encode.c ****     pb_uint64_t zigzagged;
 599:Src/pb_encode.c ****     if (value < 0)
 600:Src/pb_encode.c ****         zigzagged = ~((pb_uint64_t)value << 1);
 601:Src/pb_encode.c ****     else
 602:Src/pb_encode.c ****         zigzagged = (pb_uint64_t)value << 1;
 603:Src/pb_encode.c ****     
 604:Src/pb_encode.c ****     return pb_encode_varint(stream, zigzagged);
 605:Src/pb_encode.c **** }
 606:Src/pb_encode.c **** 
 607:Src/pb_encode.c **** bool checkreturn pb_encode_fixed32(pb_ostream_t *stream, const void *value)
 608:Src/pb_encode.c **** {
 609:Src/pb_encode.c ****     uint32_t val = *(const uint32_t*)value;
 610:Src/pb_encode.c ****     pb_byte_t bytes[4];
 611:Src/pb_encode.c ****     bytes[0] = (pb_byte_t)(val & 0xFF);
 612:Src/pb_encode.c ****     bytes[1] = (pb_byte_t)((val >> 8) & 0xFF);
 613:Src/pb_encode.c ****     bytes[2] = (pb_byte_t)((val >> 16) & 0xFF);
 614:Src/pb_encode.c ****     bytes[3] = (pb_byte_t)((val >> 24) & 0xFF);
 615:Src/pb_encode.c ****     return pb_write(stream, bytes, 4);
ARM GAS  C:\Users\grgcz\AppData\Local\Temp\ccHl8fYU.s 			page 26


 616:Src/pb_encode.c **** }
 617:Src/pb_encode.c **** 
 618:Src/pb_encode.c **** #ifndef PB_WITHOUT_64BIT
 619:Src/pb_encode.c **** bool checkreturn pb_encode_fixed64(pb_ostream_t *stream, const void *value)
 620:Src/pb_encode.c **** {
 621:Src/pb_encode.c ****     uint64_t val = *(const uint64_t*)value;
 622:Src/pb_encode.c ****     pb_byte_t bytes[8];
 623:Src/pb_encode.c ****     bytes[0] = (pb_byte_t)(val & 0xFF);
 624:Src/pb_encode.c ****     bytes[1] = (pb_byte_t)((val >> 8) & 0xFF);
 625:Src/pb_encode.c ****     bytes[2] = (pb_byte_t)((val >> 16) & 0xFF);
 626:Src/pb_encode.c ****     bytes[3] = (pb_byte_t)((val >> 24) & 0xFF);
 627:Src/pb_encode.c ****     bytes[4] = (pb_byte_t)((val >> 32) & 0xFF);
 628:Src/pb_encode.c ****     bytes[5] = (pb_byte_t)((val >> 40) & 0xFF);
 629:Src/pb_encode.c ****     bytes[6] = (pb_byte_t)((val >> 48) & 0xFF);
 630:Src/pb_encode.c ****     bytes[7] = (pb_byte_t)((val >> 56) & 0xFF);
 631:Src/pb_encode.c ****     return pb_write(stream, bytes, 8);
 632:Src/pb_encode.c **** }
 633:Src/pb_encode.c **** #endif
 634:Src/pb_encode.c **** 
 635:Src/pb_encode.c **** bool checkreturn pb_encode_tag(pb_ostream_t *stream, pb_wire_type_t wiretype, uint32_t field_number
 636:Src/pb_encode.c **** {
 637:Src/pb_encode.c ****     pb_uint64_t tag = ((pb_uint64_t)field_number << 3) | wiretype;
 638:Src/pb_encode.c ****     return pb_encode_varint(stream, tag);
 639:Src/pb_encode.c **** }
 640:Src/pb_encode.c **** 
 641:Src/pb_encode.c **** bool checkreturn pb_encode_tag_for_field(pb_ostream_t *stream, const pb_field_t *field)
 642:Src/pb_encode.c **** {
 643:Src/pb_encode.c ****     pb_wire_type_t wiretype;
 644:Src/pb_encode.c ****     switch (PB_LTYPE(field->type))
 645:Src/pb_encode.c ****     {
 646:Src/pb_encode.c ****         case PB_LTYPE_VARINT:
 647:Src/pb_encode.c ****         case PB_LTYPE_UVARINT:
 648:Src/pb_encode.c ****         case PB_LTYPE_SVARINT:
 649:Src/pb_encode.c ****             wiretype = PB_WT_VARINT;
 650:Src/pb_encode.c ****             break;
 651:Src/pb_encode.c ****         
 652:Src/pb_encode.c ****         case PB_LTYPE_FIXED32:
 653:Src/pb_encode.c ****             wiretype = PB_WT_32BIT;
 654:Src/pb_encode.c ****             break;
 655:Src/pb_encode.c ****         
 656:Src/pb_encode.c ****         case PB_LTYPE_FIXED64:
 657:Src/pb_encode.c ****             wiretype = PB_WT_64BIT;
 658:Src/pb_encode.c ****             break;
 659:Src/pb_encode.c ****         
 660:Src/pb_encode.c ****         case PB_LTYPE_BYTES:
 661:Src/pb_encode.c ****         case PB_LTYPE_STRING:
 662:Src/pb_encode.c ****         case PB_LTYPE_SUBMESSAGE:
 663:Src/pb_encode.c ****         case PB_LTYPE_FIXED_LENGTH_BYTES:
 664:Src/pb_encode.c ****             wiretype = PB_WT_STRING;
 665:Src/pb_encode.c ****             break;
 666:Src/pb_encode.c ****         
 667:Src/pb_encode.c ****         default:
 668:Src/pb_encode.c ****             PB_RETURN_ERROR(stream, "invalid field type");
 669:Src/pb_encode.c ****     }
 670:Src/pb_encode.c ****     
 671:Src/pb_encode.c ****     return pb_encode_tag(stream, wiretype, field->tag);
 672:Src/pb_encode.c **** }
ARM GAS  C:\Users\grgcz\AppData\Local\Temp\ccHl8fYU.s 			page 27


 673:Src/pb_encode.c **** 
 674:Src/pb_encode.c **** bool checkreturn pb_encode_string(pb_ostream_t *stream, const pb_byte_t *buffer, size_t size)
 675:Src/pb_encode.c **** {
 676:Src/pb_encode.c ****     if (!pb_encode_varint(stream, (pb_uint64_t)size))
 677:Src/pb_encode.c ****         return false;
 678:Src/pb_encode.c ****     
 679:Src/pb_encode.c ****     return pb_write(stream, buffer, size);
 680:Src/pb_encode.c **** }
 681:Src/pb_encode.c **** 
 682:Src/pb_encode.c **** bool checkreturn pb_encode_submessage(pb_ostream_t *stream, const pb_field_t fields[], const void *
 683:Src/pb_encode.c **** {
 684:Src/pb_encode.c ****     /* First calculate the message size using a non-writing substream. */
 685:Src/pb_encode.c ****     pb_ostream_t substream = PB_OSTREAM_SIZING;
 686:Src/pb_encode.c ****     size_t size;
 687:Src/pb_encode.c ****     bool status;
 688:Src/pb_encode.c ****     
 689:Src/pb_encode.c ****     if (!pb_encode(&substream, fields, src_struct))
 690:Src/pb_encode.c ****     {
 691:Src/pb_encode.c **** #ifndef PB_NO_ERRMSG
 692:Src/pb_encode.c ****         stream->errmsg = substream.errmsg;
 693:Src/pb_encode.c **** #endif
 694:Src/pb_encode.c ****         return false;
 695:Src/pb_encode.c ****     }
 696:Src/pb_encode.c ****     
 697:Src/pb_encode.c ****     size = substream.bytes_written;
 698:Src/pb_encode.c ****     
 699:Src/pb_encode.c ****     if (!pb_encode_varint(stream, (pb_uint64_t)size))
 700:Src/pb_encode.c ****         return false;
 701:Src/pb_encode.c ****     
 702:Src/pb_encode.c ****     if (stream->callback == NULL)
 703:Src/pb_encode.c ****         return pb_write(stream, NULL, size); /* Just sizing */
 704:Src/pb_encode.c ****     
 705:Src/pb_encode.c ****     if (stream->bytes_written + size > stream->max_size)
 706:Src/pb_encode.c ****         PB_RETURN_ERROR(stream, "stream full");
 707:Src/pb_encode.c ****         
 708:Src/pb_encode.c ****     /* Use a substream to verify that a callback doesn't write more than
 709:Src/pb_encode.c ****      * what it did the first time. */
 710:Src/pb_encode.c ****     substream.callback = stream->callback;
 711:Src/pb_encode.c ****     substream.state = stream->state;
 712:Src/pb_encode.c ****     substream.max_size = size;
 713:Src/pb_encode.c ****     substream.bytes_written = 0;
 714:Src/pb_encode.c **** #ifndef PB_NO_ERRMSG
 715:Src/pb_encode.c ****     substream.errmsg = NULL;
 716:Src/pb_encode.c **** #endif
 717:Src/pb_encode.c ****     
 718:Src/pb_encode.c ****     status = pb_encode(&substream, fields, src_struct);
 719:Src/pb_encode.c ****     
 720:Src/pb_encode.c ****     stream->bytes_written += substream.bytes_written;
 721:Src/pb_encode.c ****     stream->state = substream.state;
 722:Src/pb_encode.c **** #ifndef PB_NO_ERRMSG
 723:Src/pb_encode.c ****     stream->errmsg = substream.errmsg;
 724:Src/pb_encode.c **** #endif
 725:Src/pb_encode.c ****     
 726:Src/pb_encode.c ****     if (substream.bytes_written != size)
 727:Src/pb_encode.c ****         PB_RETURN_ERROR(stream, "submsg size changed");
 728:Src/pb_encode.c ****     
 729:Src/pb_encode.c ****     return status;
ARM GAS  C:\Users\grgcz\AppData\Local\Temp\ccHl8fYU.s 			page 28


 730:Src/pb_encode.c **** }
 731:Src/pb_encode.c **** 
 732:Src/pb_encode.c **** /* Field encoders */
 733:Src/pb_encode.c **** 
 734:Src/pb_encode.c **** static bool checkreturn pb_enc_varint(pb_ostream_t *stream, const pb_field_t *field, const void *sr
 735:Src/pb_encode.c **** {
 736:Src/pb_encode.c ****     pb_int64_t value = 0;
 737:Src/pb_encode.c ****     
 738:Src/pb_encode.c ****     if (field->data_size == sizeof(int_least8_t))
 739:Src/pb_encode.c ****         value = *(const int_least8_t*)src;
 740:Src/pb_encode.c ****     else if (field->data_size == sizeof(int_least16_t))
 741:Src/pb_encode.c ****         value = *(const int_least16_t*)src;
 742:Src/pb_encode.c ****     else if (field->data_size == sizeof(int32_t))
 743:Src/pb_encode.c ****         value = *(const int32_t*)src;
 744:Src/pb_encode.c ****     else if (field->data_size == sizeof(pb_int64_t))
 745:Src/pb_encode.c ****         value = *(const pb_int64_t*)src;
 746:Src/pb_encode.c ****     else
 747:Src/pb_encode.c ****         PB_RETURN_ERROR(stream, "invalid data_size");
 748:Src/pb_encode.c ****     
 749:Src/pb_encode.c **** #ifdef PB_WITHOUT_64BIT
 750:Src/pb_encode.c ****     if (value < 0)
 751:Src/pb_encode.c ****       return pb_encode_negative_varint(stream, (pb_uint64_t)value);
 752:Src/pb_encode.c ****     else
 753:Src/pb_encode.c **** #endif
 754:Src/pb_encode.c ****       return pb_encode_varint(stream, (pb_uint64_t)value);
 755:Src/pb_encode.c **** }
 756:Src/pb_encode.c **** 
 757:Src/pb_encode.c **** static bool checkreturn pb_enc_uvarint(pb_ostream_t *stream, const pb_field_t *field, const void *s
 758:Src/pb_encode.c **** {
 693              		.loc 1 758 1 is_stmt 1 view -0
 694              		.cfi_startproc
 695              		@ args = 0, pretend = 0, frame = 0
 696              		@ frame_needed = 0, uses_anonymous_args = 0
 697              		.loc 1 758 1 is_stmt 0 view .LVU190
 698 0000 08B5     		push	{r3, lr}
 699              	.LCFI14:
 700              		.cfi_def_cfa_offset 8
 701              		.cfi_offset 3, -8
 702              		.cfi_offset 14, -4
 759:Src/pb_encode.c ****     pb_uint64_t value = 0;
 703              		.loc 1 759 5 is_stmt 1 view .LVU191
 704              	.LVL61:
 760:Src/pb_encode.c ****     
 761:Src/pb_encode.c ****     if (field->data_size == sizeof(uint_least8_t))
 705              		.loc 1 761 5 view .LVU192
 706              		.loc 1 761 14 is_stmt 0 view .LVU193
 707 0002 B1F80730 		ldrh	r3, [r1, #7]	@ unaligned
 708              		.loc 1 761 8 view .LVU194
 709 0006 012B     		cmp	r3, #1
 710 0008 08D0     		beq	.L80
 762:Src/pb_encode.c ****         value = *(const uint_least8_t*)src;
 763:Src/pb_encode.c ****     else if (field->data_size == sizeof(uint_least16_t))
 711              		.loc 1 763 10 is_stmt 1 view .LVU195
 712              		.loc 1 763 13 is_stmt 0 view .LVU196
 713 000a 022B     		cmp	r3, #2
 714 000c 0BD0     		beq	.L81
 764:Src/pb_encode.c ****         value = *(const uint_least16_t*)src;
ARM GAS  C:\Users\grgcz\AppData\Local\Temp\ccHl8fYU.s 			page 29


 765:Src/pb_encode.c ****     else if (field->data_size == sizeof(uint32_t))
 715              		.loc 1 765 10 is_stmt 1 view .LVU197
 716              		.loc 1 765 13 is_stmt 0 view .LVU198
 717 000e 042B     		cmp	r3, #4
 718 0010 0CD0     		beq	.L82
 766:Src/pb_encode.c ****         value = *(const uint32_t*)src;
 767:Src/pb_encode.c ****     else if (field->data_size == sizeof(pb_uint64_t))
 719              		.loc 1 767 10 is_stmt 1 view .LVU199
 720              		.loc 1 767 13 is_stmt 0 view .LVU200
 721 0012 082B     		cmp	r3, #8
 722 0014 0DD1     		bne	.L76
 768:Src/pb_encode.c ****         value = *(const pb_uint64_t*)src;
 723              		.loc 1 768 9 is_stmt 1 view .LVU201
 724              		.loc 1 768 15 is_stmt 0 view .LVU202
 725 0016 D2E90023 		ldrd	r2, [r2]
 726              	.LVL62:
 727              		.loc 1 768 15 view .LVU203
 728 001a 01E0     		b	.L73
 729              	.LVL63:
 730              	.L80:
 762:Src/pb_encode.c ****     else if (field->data_size == sizeof(uint_least16_t))
 731              		.loc 1 762 9 is_stmt 1 view .LVU204
 762:Src/pb_encode.c ****     else if (field->data_size == sizeof(uint_least16_t))
 732              		.loc 1 762 15 is_stmt 0 view .LVU205
 733 001c 1278     		ldrb	r2, [r2]	@ zero_extendqisi2
 734              	.LVL64:
 762:Src/pb_encode.c ****     else if (field->data_size == sizeof(uint_least16_t))
 735              		.loc 1 762 15 view .LVU206
 736 001e 0023     		movs	r3, #0
 737              	.LVL65:
 738              	.L73:
 769:Src/pb_encode.c ****     else
 770:Src/pb_encode.c ****         PB_RETURN_ERROR(stream, "invalid data_size");
 771:Src/pb_encode.c ****     
 772:Src/pb_encode.c ****     return pb_encode_varint(stream, value);
 739              		.loc 1 772 5 is_stmt 1 view .LVU207
 740              		.loc 1 772 12 is_stmt 0 view .LVU208
 741 0020 FFF7FEFF 		bl	pb_encode_varint
 742              	.LVL66:
 743              	.L78:
 773:Src/pb_encode.c **** }
 744              		.loc 1 773 1 view .LVU209
 745 0024 08BD     		pop	{r3, pc}
 746              	.LVL67:
 747              	.L81:
 764:Src/pb_encode.c ****     else if (field->data_size == sizeof(uint32_t))
 748              		.loc 1 764 9 is_stmt 1 view .LVU210
 764:Src/pb_encode.c ****     else if (field->data_size == sizeof(uint32_t))
 749              		.loc 1 764 15 is_stmt 0 view .LVU211
 750 0026 1288     		ldrh	r2, [r2]
 751              	.LVL68:
 764:Src/pb_encode.c ****     else if (field->data_size == sizeof(uint32_t))
 752              		.loc 1 764 15 view .LVU212
 753 0028 0023     		movs	r3, #0
 754              	.LVL69:
 764:Src/pb_encode.c ****     else if (field->data_size == sizeof(uint32_t))
 755              		.loc 1 764 15 view .LVU213
ARM GAS  C:\Users\grgcz\AppData\Local\Temp\ccHl8fYU.s 			page 30


 756 002a F9E7     		b	.L73
 757              	.LVL70:
 758              	.L82:
 766:Src/pb_encode.c ****     else if (field->data_size == sizeof(pb_uint64_t))
 759              		.loc 1 766 9 is_stmt 1 view .LVU214
 766:Src/pb_encode.c ****     else if (field->data_size == sizeof(pb_uint64_t))
 760              		.loc 1 766 17 is_stmt 0 view .LVU215
 761 002c 1268     		ldr	r2, [r2]
 762              	.LVL71:
 766:Src/pb_encode.c ****     else if (field->data_size == sizeof(pb_uint64_t))
 763              		.loc 1 766 15 view .LVU216
 764 002e 0023     		movs	r3, #0
 765              	.LVL72:
 766:Src/pb_encode.c ****     else if (field->data_size == sizeof(pb_uint64_t))
 766              		.loc 1 766 15 view .LVU217
 767 0030 F6E7     		b	.L73
 768              	.LVL73:
 769              	.L76:
 770:Src/pb_encode.c ****     
 770              		.loc 1 770 9 is_stmt 1 view .LVU218
 771 0032 0369     		ldr	r3, [r0, #16]
 772 0034 13B1     		cbz	r3, .L83
 773              	.L77:
 770:Src/pb_encode.c ****     
 774              		.loc 1 770 9 is_stmt 0 discriminator 4 view .LVU219
 775 0036 0361     		str	r3, [r0, #16]
 776 0038 0020     		movs	r0, #0
 777              	.LVL74:
 770:Src/pb_encode.c ****     
 778              		.loc 1 770 9 discriminator 4 view .LVU220
 779 003a F3E7     		b	.L78
 780              	.LVL75:
 781              	.L83:
 770:Src/pb_encode.c ****     
 782              		.loc 1 770 9 view .LVU221
 783 003c 004B     		ldr	r3, .L84
 784 003e FAE7     		b	.L77
 785              	.L85:
 786              		.align	2
 787              	.L84:
 788 0040 00000000 		.word	.LC3
 789              		.cfi_endproc
 790              	.LFE24:
 792              		.section	.text.pb_enc_varint,"ax",%progbits
 793              		.align	1
 794              		.syntax unified
 795              		.thumb
 796              		.thumb_func
 797              		.fpu fpv4-sp-d16
 799              	pb_enc_varint:
 800              	.LVL76:
 801              	.LFB23:
 735:Src/pb_encode.c ****     pb_int64_t value = 0;
 802              		.loc 1 735 1 is_stmt 1 view -0
 803              		.cfi_startproc
 804              		@ args = 0, pretend = 0, frame = 0
 805              		@ frame_needed = 0, uses_anonymous_args = 0
ARM GAS  C:\Users\grgcz\AppData\Local\Temp\ccHl8fYU.s 			page 31


 735:Src/pb_encode.c ****     pb_int64_t value = 0;
 806              		.loc 1 735 1 is_stmt 0 view .LVU223
 807 0000 08B5     		push	{r3, lr}
 808              	.LCFI15:
 809              		.cfi_def_cfa_offset 8
 810              		.cfi_offset 3, -8
 811              		.cfi_offset 14, -4
 736:Src/pb_encode.c ****     
 812              		.loc 1 736 5 is_stmt 1 view .LVU224
 813              	.LVL77:
 738:Src/pb_encode.c ****         value = *(const int_least8_t*)src;
 814              		.loc 1 738 5 view .LVU225
 738:Src/pb_encode.c ****         value = *(const int_least8_t*)src;
 815              		.loc 1 738 14 is_stmt 0 view .LVU226
 816 0002 B1F80730 		ldrh	r3, [r1, #7]	@ unaligned
 738:Src/pb_encode.c ****         value = *(const int_least8_t*)src;
 817              		.loc 1 738 8 view .LVU227
 818 0006 012B     		cmp	r3, #1
 819 0008 08D0     		beq	.L95
 740:Src/pb_encode.c ****         value = *(const int_least16_t*)src;
 820              		.loc 1 740 10 is_stmt 1 view .LVU228
 740:Src/pb_encode.c ****         value = *(const int_least16_t*)src;
 821              		.loc 1 740 13 is_stmt 0 view .LVU229
 822 000a 022B     		cmp	r3, #2
 823 000c 0CD0     		beq	.L96
 742:Src/pb_encode.c ****         value = *(const int32_t*)src;
 824              		.loc 1 742 10 is_stmt 1 view .LVU230
 742:Src/pb_encode.c ****         value = *(const int32_t*)src;
 825              		.loc 1 742 13 is_stmt 0 view .LVU231
 826 000e 042B     		cmp	r3, #4
 827 0010 0ED0     		beq	.L97
 744:Src/pb_encode.c ****         value = *(const pb_int64_t*)src;
 828              		.loc 1 744 10 is_stmt 1 view .LVU232
 744:Src/pb_encode.c ****         value = *(const pb_int64_t*)src;
 829              		.loc 1 744 13 is_stmt 0 view .LVU233
 830 0012 082B     		cmp	r3, #8
 831 0014 0FD1     		bne	.L91
 745:Src/pb_encode.c ****     else
 832              		.loc 1 745 9 is_stmt 1 view .LVU234
 745:Src/pb_encode.c ****     else
 833              		.loc 1 745 15 is_stmt 0 view .LVU235
 834 0016 D2E90023 		ldrd	r2, [r2]
 835              	.LVL78:
 745:Src/pb_encode.c ****     else
 836              		.loc 1 745 15 view .LVU236
 837 001a 02E0     		b	.L88
 838              	.LVL79:
 839              	.L95:
 739:Src/pb_encode.c ****     else if (field->data_size == sizeof(int_least16_t))
 840              		.loc 1 739 9 is_stmt 1 view .LVU237
 739:Src/pb_encode.c ****     else if (field->data_size == sizeof(int_least16_t))
 841              		.loc 1 739 15 is_stmt 0 view .LVU238
 842 001c 92F90020 		ldrsb	r2, [r2]
 843              	.LVL80:
 739:Src/pb_encode.c ****     else if (field->data_size == sizeof(int_least16_t))
 844              		.loc 1 739 15 view .LVU239
 845 0020 D317     		asrs	r3, r2, #31
ARM GAS  C:\Users\grgcz\AppData\Local\Temp\ccHl8fYU.s 			page 32


 846              	.LVL81:
 847              	.L88:
 754:Src/pb_encode.c **** }
 848              		.loc 1 754 7 is_stmt 1 view .LVU240
 754:Src/pb_encode.c **** }
 849              		.loc 1 754 14 is_stmt 0 view .LVU241
 850 0022 FFF7FEFF 		bl	pb_encode_varint
 851              	.LVL82:
 852              	.L93:
 755:Src/pb_encode.c **** 
 853              		.loc 1 755 1 view .LVU242
 854 0026 08BD     		pop	{r3, pc}
 855              	.LVL83:
 856              	.L96:
 741:Src/pb_encode.c ****     else if (field->data_size == sizeof(int32_t))
 857              		.loc 1 741 9 is_stmt 1 view .LVU243
 741:Src/pb_encode.c ****     else if (field->data_size == sizeof(int32_t))
 858              		.loc 1 741 15 is_stmt 0 view .LVU244
 859 0028 B2F90020 		ldrsh	r2, [r2]
 860              	.LVL84:
 741:Src/pb_encode.c ****     else if (field->data_size == sizeof(int32_t))
 861              		.loc 1 741 15 view .LVU245
 862 002c D317     		asrs	r3, r2, #31
 863              	.LVL85:
 741:Src/pb_encode.c ****     else if (field->data_size == sizeof(int32_t))
 864              		.loc 1 741 15 view .LVU246
 865 002e F8E7     		b	.L88
 866              	.LVL86:
 867              	.L97:
 743:Src/pb_encode.c ****     else if (field->data_size == sizeof(pb_int64_t))
 868              		.loc 1 743 9 is_stmt 1 view .LVU247
 743:Src/pb_encode.c ****     else if (field->data_size == sizeof(pb_int64_t))
 869              		.loc 1 743 17 is_stmt 0 view .LVU248
 870 0030 1268     		ldr	r2, [r2]
 871              	.LVL87:
 743:Src/pb_encode.c ****     else if (field->data_size == sizeof(pb_int64_t))
 872              		.loc 1 743 15 view .LVU249
 873 0032 D317     		asrs	r3, r2, #31
 874              	.LVL88:
 743:Src/pb_encode.c ****     else if (field->data_size == sizeof(pb_int64_t))
 875              		.loc 1 743 15 view .LVU250
 876 0034 F5E7     		b	.L88
 877              	.LVL89:
 878              	.L91:
 747:Src/pb_encode.c ****     
 879              		.loc 1 747 9 is_stmt 1 view .LVU251
 880 0036 0369     		ldr	r3, [r0, #16]
 881 0038 13B1     		cbz	r3, .L98
 882              	.L92:
 747:Src/pb_encode.c ****     
 883              		.loc 1 747 9 is_stmt 0 discriminator 4 view .LVU252
 884 003a 0361     		str	r3, [r0, #16]
 885 003c 0020     		movs	r0, #0
 886              	.LVL90:
 747:Src/pb_encode.c ****     
 887              		.loc 1 747 9 discriminator 4 view .LVU253
 888 003e F2E7     		b	.L93
ARM GAS  C:\Users\grgcz\AppData\Local\Temp\ccHl8fYU.s 			page 33


 889              	.LVL91:
 890              	.L98:
 747:Src/pb_encode.c ****     
 891              		.loc 1 747 9 view .LVU254
 892 0040 004B     		ldr	r3, .L99
 893 0042 FAE7     		b	.L92
 894              	.L100:
 895              		.align	2
 896              	.L99:
 897 0044 00000000 		.word	.LC3
 898              		.cfi_endproc
 899              	.LFE23:
 901              		.section	.text.pb_encode_svarint,"ax",%progbits
 902              		.align	1
 903              		.global	pb_encode_svarint
 904              		.syntax unified
 905              		.thumb
 906              		.thumb_func
 907              		.fpu fpv4-sp-d16
 909              	pb_encode_svarint:
 910              	.LVL92:
 911              	.LFB16:
 597:Src/pb_encode.c ****     pb_uint64_t zigzagged;
 912              		.loc 1 597 1 is_stmt 1 view -0
 913              		.cfi_startproc
 914              		@ args = 0, pretend = 0, frame = 0
 915              		@ frame_needed = 0, uses_anonymous_args = 0
 597:Src/pb_encode.c ****     pb_uint64_t zigzagged;
 916              		.loc 1 597 1 is_stmt 0 view .LVU256
 917 0000 2DE90048 		push	{fp, lr}
 918              	.LCFI16:
 919              		.cfi_def_cfa_offset 8
 920              		.cfi_offset 11, -8
 921              		.cfi_offset 14, -4
 922 0004 9C46     		mov	ip, r3
 598:Src/pb_encode.c ****     if (value < 0)
 923              		.loc 1 598 5 is_stmt 1 view .LVU257
 599:Src/pb_encode.c ****         zigzagged = ~((pb_uint64_t)value << 1);
 924              		.loc 1 599 5 view .LVU258
 599:Src/pb_encode.c ****         zigzagged = ~((pb_uint64_t)value << 1);
 925              		.loc 1 599 8 is_stmt 0 view .LVU259
 926 0006 002A     		cmp	r2, #0
 927 0008 73F10003 		sbcs	r3, r3, #0
 928 000c 06DB     		blt	.L105
 602:Src/pb_encode.c ****     
 929              		.loc 1 602 9 is_stmt 1 view .LVU260
 602:Src/pb_encode.c ****     
 930              		.loc 1 602 19 is_stmt 0 view .LVU261
 931 000e 9218     		adds	r2, r2, r2
 932              	.LVL93:
 602:Src/pb_encode.c ****     
 933              		.loc 1 602 19 view .LVU262
 934 0010 4CEB0C03 		adc	r3, ip, ip
 935              	.LVL94:
 936              	.L103:
 604:Src/pb_encode.c **** }
 937              		.loc 1 604 5 is_stmt 1 view .LVU263
ARM GAS  C:\Users\grgcz\AppData\Local\Temp\ccHl8fYU.s 			page 34


 604:Src/pb_encode.c **** }
 938              		.loc 1 604 12 is_stmt 0 view .LVU264
 939 0014 FFF7FEFF 		bl	pb_encode_varint
 940              	.LVL95:
 605:Src/pb_encode.c **** 
 941              		.loc 1 605 1 view .LVU265
 942 0018 BDE80088 		pop	{fp, pc}
 943              	.LVL96:
 944              	.L105:
 600:Src/pb_encode.c ****     else
 945              		.loc 1 600 9 is_stmt 1 view .LVU266
 600:Src/pb_encode.c ****     else
 946              		.loc 1 600 42 is_stmt 0 view .LVU267
 947 001c 9218     		adds	r2, r2, r2
 948              	.LVL97:
 600:Src/pb_encode.c ****     else
 949              		.loc 1 600 42 view .LVU268
 950 001e 4CEB0C03 		adc	r3, ip, ip
 600:Src/pb_encode.c ****     else
 951              		.loc 1 600 19 view .LVU269
 952 0022 D243     		mvns	r2, r2
 953 0024 DB43     		mvns	r3, r3
 954              	.LVL98:
 600:Src/pb_encode.c ****     else
 955              		.loc 1 600 19 view .LVU270
 956 0026 F5E7     		b	.L103
 957              		.cfi_endproc
 958              	.LFE16:
 960              		.section	.text.pb_enc_svarint,"ax",%progbits
 961              		.align	1
 962              		.syntax unified
 963              		.thumb
 964              		.thumb_func
 965              		.fpu fpv4-sp-d16
 967              	pb_enc_svarint:
 968              	.LVL99:
 969              	.LFB25:
 774:Src/pb_encode.c **** 
 775:Src/pb_encode.c **** static bool checkreturn pb_enc_svarint(pb_ostream_t *stream, const pb_field_t *field, const void *s
 776:Src/pb_encode.c **** {
 970              		.loc 1 776 1 is_stmt 1 view -0
 971              		.cfi_startproc
 972              		@ args = 0, pretend = 0, frame = 0
 973              		@ frame_needed = 0, uses_anonymous_args = 0
 974              		.loc 1 776 1 is_stmt 0 view .LVU272
 975 0000 08B5     		push	{r3, lr}
 976              	.LCFI17:
 977              		.cfi_def_cfa_offset 8
 978              		.cfi_offset 3, -8
 979              		.cfi_offset 14, -4
 777:Src/pb_encode.c ****     pb_int64_t value = 0;
 980              		.loc 1 777 5 is_stmt 1 view .LVU273
 981              	.LVL100:
 778:Src/pb_encode.c ****     
 779:Src/pb_encode.c ****     if (field->data_size == sizeof(int_least8_t))
 982              		.loc 1 779 5 view .LVU274
 983              		.loc 1 779 14 is_stmt 0 view .LVU275
ARM GAS  C:\Users\grgcz\AppData\Local\Temp\ccHl8fYU.s 			page 35


 984 0002 B1F80730 		ldrh	r3, [r1, #7]	@ unaligned
 985              		.loc 1 779 8 view .LVU276
 986 0006 012B     		cmp	r3, #1
 987 0008 08D0     		beq	.L115
 780:Src/pb_encode.c ****         value = *(const int_least8_t*)src;
 781:Src/pb_encode.c ****     else if (field->data_size == sizeof(int_least16_t))
 988              		.loc 1 781 10 is_stmt 1 view .LVU277
 989              		.loc 1 781 13 is_stmt 0 view .LVU278
 990 000a 022B     		cmp	r3, #2
 991 000c 0CD0     		beq	.L116
 782:Src/pb_encode.c ****         value = *(const int_least16_t*)src;
 783:Src/pb_encode.c ****     else if (field->data_size == sizeof(int32_t))
 992              		.loc 1 783 10 is_stmt 1 view .LVU279
 993              		.loc 1 783 13 is_stmt 0 view .LVU280
 994 000e 042B     		cmp	r3, #4
 995 0010 0ED0     		beq	.L117
 784:Src/pb_encode.c ****         value = *(const int32_t*)src;
 785:Src/pb_encode.c ****     else if (field->data_size == sizeof(pb_int64_t))
 996              		.loc 1 785 10 is_stmt 1 view .LVU281
 997              		.loc 1 785 13 is_stmt 0 view .LVU282
 998 0012 082B     		cmp	r3, #8
 999 0014 0FD1     		bne	.L111
 786:Src/pb_encode.c ****         value = *(const pb_int64_t*)src;
 1000              		.loc 1 786 9 is_stmt 1 view .LVU283
 1001              		.loc 1 786 15 is_stmt 0 view .LVU284
 1002 0016 D2E90023 		ldrd	r2, [r2]
 1003              	.LVL101:
 1004              		.loc 1 786 15 view .LVU285
 1005 001a 02E0     		b	.L108
 1006              	.LVL102:
 1007              	.L115:
 780:Src/pb_encode.c ****     else if (field->data_size == sizeof(int_least16_t))
 1008              		.loc 1 780 9 is_stmt 1 view .LVU286
 780:Src/pb_encode.c ****     else if (field->data_size == sizeof(int_least16_t))
 1009              		.loc 1 780 15 is_stmt 0 view .LVU287
 1010 001c 92F90020 		ldrsb	r2, [r2]
 1011              	.LVL103:
 780:Src/pb_encode.c ****     else if (field->data_size == sizeof(int_least16_t))
 1012              		.loc 1 780 15 view .LVU288
 1013 0020 D317     		asrs	r3, r2, #31
 1014              	.LVL104:
 1015              	.L108:
 787:Src/pb_encode.c ****     else
 788:Src/pb_encode.c ****         PB_RETURN_ERROR(stream, "invalid data_size");
 789:Src/pb_encode.c ****     
 790:Src/pb_encode.c ****     return pb_encode_svarint(stream, value);
 1016              		.loc 1 790 5 is_stmt 1 view .LVU289
 1017              		.loc 1 790 12 is_stmt 0 view .LVU290
 1018 0022 FFF7FEFF 		bl	pb_encode_svarint
 1019              	.LVL105:
 1020              	.L113:
 791:Src/pb_encode.c **** }
 1021              		.loc 1 791 1 view .LVU291
 1022 0026 08BD     		pop	{r3, pc}
 1023              	.LVL106:
 1024              	.L116:
 782:Src/pb_encode.c ****     else if (field->data_size == sizeof(int32_t))
ARM GAS  C:\Users\grgcz\AppData\Local\Temp\ccHl8fYU.s 			page 36


 1025              		.loc 1 782 9 is_stmt 1 view .LVU292
 782:Src/pb_encode.c ****     else if (field->data_size == sizeof(int32_t))
 1026              		.loc 1 782 15 is_stmt 0 view .LVU293
 1027 0028 B2F90020 		ldrsh	r2, [r2]
 1028              	.LVL107:
 782:Src/pb_encode.c ****     else if (field->data_size == sizeof(int32_t))
 1029              		.loc 1 782 15 view .LVU294
 1030 002c D317     		asrs	r3, r2, #31
 1031              	.LVL108:
 782:Src/pb_encode.c ****     else if (field->data_size == sizeof(int32_t))
 1032              		.loc 1 782 15 view .LVU295
 1033 002e F8E7     		b	.L108
 1034              	.LVL109:
 1035              	.L117:
 784:Src/pb_encode.c ****     else if (field->data_size == sizeof(pb_int64_t))
 1036              		.loc 1 784 9 is_stmt 1 view .LVU296
 784:Src/pb_encode.c ****     else if (field->data_size == sizeof(pb_int64_t))
 1037              		.loc 1 784 17 is_stmt 0 view .LVU297
 1038 0030 1268     		ldr	r2, [r2]
 1039              	.LVL110:
 784:Src/pb_encode.c ****     else if (field->data_size == sizeof(pb_int64_t))
 1040              		.loc 1 784 15 view .LVU298
 1041 0032 D317     		asrs	r3, r2, #31
 1042              	.LVL111:
 784:Src/pb_encode.c ****     else if (field->data_size == sizeof(pb_int64_t))
 1043              		.loc 1 784 15 view .LVU299
 1044 0034 F5E7     		b	.L108
 1045              	.LVL112:
 1046              	.L111:
 788:Src/pb_encode.c ****     
 1047              		.loc 1 788 9 is_stmt 1 view .LVU300
 1048 0036 0369     		ldr	r3, [r0, #16]
 1049 0038 13B1     		cbz	r3, .L118
 1050              	.L112:
 788:Src/pb_encode.c ****     
 1051              		.loc 1 788 9 is_stmt 0 discriminator 4 view .LVU301
 1052 003a 0361     		str	r3, [r0, #16]
 1053 003c 0020     		movs	r0, #0
 1054              	.LVL113:
 788:Src/pb_encode.c ****     
 1055              		.loc 1 788 9 discriminator 4 view .LVU302
 1056 003e F2E7     		b	.L113
 1057              	.LVL114:
 1058              	.L118:
 788:Src/pb_encode.c ****     
 1059              		.loc 1 788 9 view .LVU303
 1060 0040 004B     		ldr	r3, .L119
 1061 0042 FAE7     		b	.L112
 1062              	.L120:
 1063              		.align	2
 1064              	.L119:
 1065 0044 00000000 		.word	.LC3
 1066              		.cfi_endproc
 1067              	.LFE25:
 1069              		.section	.text.pb_encode_fixed32,"ax",%progbits
 1070              		.align	1
 1071              		.global	pb_encode_fixed32
ARM GAS  C:\Users\grgcz\AppData\Local\Temp\ccHl8fYU.s 			page 37


 1072              		.syntax unified
 1073              		.thumb
 1074              		.thumb_func
 1075              		.fpu fpv4-sp-d16
 1077              	pb_encode_fixed32:
 1078              	.LVL115:
 1079              	.LFB17:
 608:Src/pb_encode.c ****     uint32_t val = *(const uint32_t*)value;
 1080              		.loc 1 608 1 is_stmt 1 view -0
 1081              		.cfi_startproc
 1082              		@ args = 0, pretend = 0, frame = 8
 1083              		@ frame_needed = 0, uses_anonymous_args = 0
 608:Src/pb_encode.c ****     uint32_t val = *(const uint32_t*)value;
 1084              		.loc 1 608 1 is_stmt 0 view .LVU305
 1085 0000 00B5     		push	{lr}
 1086              	.LCFI18:
 1087              		.cfi_def_cfa_offset 4
 1088              		.cfi_offset 14, -4
 1089 0002 83B0     		sub	sp, sp, #12
 1090              	.LCFI19:
 1091              		.cfi_def_cfa_offset 16
 609:Src/pb_encode.c ****     pb_byte_t bytes[4];
 1092              		.loc 1 609 5 is_stmt 1 view .LVU306
 609:Src/pb_encode.c ****     pb_byte_t bytes[4];
 1093              		.loc 1 609 14 is_stmt 0 view .LVU307
 1094 0004 0B68     		ldr	r3, [r1]
 1095              	.LVL116:
 610:Src/pb_encode.c ****     bytes[0] = (pb_byte_t)(val & 0xFF);
 1096              		.loc 1 610 5 is_stmt 1 view .LVU308
 611:Src/pb_encode.c ****     bytes[1] = (pb_byte_t)((val >> 8) & 0xFF);
 1097              		.loc 1 611 5 view .LVU309
 611:Src/pb_encode.c ****     bytes[1] = (pb_byte_t)((val >> 8) & 0xFF);
 1098              		.loc 1 611 14 is_stmt 0 view .LVU310
 1099 0006 8DF80430 		strb	r3, [sp, #4]
 612:Src/pb_encode.c ****     bytes[2] = (pb_byte_t)((val >> 16) & 0xFF);
 1100              		.loc 1 612 5 is_stmt 1 view .LVU311
 612:Src/pb_encode.c ****     bytes[2] = (pb_byte_t)((val >> 16) & 0xFF);
 1101              		.loc 1 612 16 is_stmt 0 view .LVU312
 1102 000a C3F30722 		ubfx	r2, r3, #8, #8
 612:Src/pb_encode.c ****     bytes[2] = (pb_byte_t)((val >> 16) & 0xFF);
 1103              		.loc 1 612 14 view .LVU313
 1104 000e 8DF80520 		strb	r2, [sp, #5]
 613:Src/pb_encode.c ****     bytes[3] = (pb_byte_t)((val >> 24) & 0xFF);
 1105              		.loc 1 613 5 is_stmt 1 view .LVU314
 613:Src/pb_encode.c ****     bytes[3] = (pb_byte_t)((val >> 24) & 0xFF);
 1106              		.loc 1 613 16 is_stmt 0 view .LVU315
 1107 0012 C3F30742 		ubfx	r2, r3, #16, #8
 613:Src/pb_encode.c ****     bytes[3] = (pb_byte_t)((val >> 24) & 0xFF);
 1108              		.loc 1 613 14 view .LVU316
 1109 0016 8DF80620 		strb	r2, [sp, #6]
 614:Src/pb_encode.c ****     return pb_write(stream, bytes, 4);
 1110              		.loc 1 614 5 is_stmt 1 view .LVU317
 614:Src/pb_encode.c ****     return pb_write(stream, bytes, 4);
 1111              		.loc 1 614 16 is_stmt 0 view .LVU318
 1112 001a 1B0E     		lsrs	r3, r3, #24
 1113              	.LVL117:
 614:Src/pb_encode.c ****     return pb_write(stream, bytes, 4);
ARM GAS  C:\Users\grgcz\AppData\Local\Temp\ccHl8fYU.s 			page 38


 1114              		.loc 1 614 14 view .LVU319
 1115 001c 8DF80730 		strb	r3, [sp, #7]
 615:Src/pb_encode.c **** }
 1116              		.loc 1 615 5 is_stmt 1 view .LVU320
 615:Src/pb_encode.c **** }
 1117              		.loc 1 615 12 is_stmt 0 view .LVU321
 1118 0020 0422     		movs	r2, #4
 1119 0022 0DEB0201 		add	r1, sp, r2
 1120              	.LVL118:
 615:Src/pb_encode.c **** }
 1121              		.loc 1 615 12 view .LVU322
 1122 0026 FFF7FEFF 		bl	pb_write
 1123              	.LVL119:
 616:Src/pb_encode.c **** 
 1124              		.loc 1 616 1 view .LVU323
 1125 002a 03B0     		add	sp, sp, #12
 1126              	.LCFI20:
 1127              		.cfi_def_cfa_offset 4
 1128              		@ sp needed
 1129 002c 5DF804FB 		ldr	pc, [sp], #4
 1130              		.cfi_endproc
 1131              	.LFE17:
 1133              		.section	.text.pb_enc_fixed32,"ax",%progbits
 1134              		.align	1
 1135              		.syntax unified
 1136              		.thumb
 1137              		.thumb_func
 1138              		.fpu fpv4-sp-d16
 1140              	pb_enc_fixed32:
 1141              	.LVL120:
 1142              	.LFB27:
 792:Src/pb_encode.c **** 
 793:Src/pb_encode.c **** static bool checkreturn pb_enc_fixed64(pb_ostream_t *stream, const pb_field_t *field, const void *s
 794:Src/pb_encode.c **** {
 795:Src/pb_encode.c ****     PB_UNUSED(field);
 796:Src/pb_encode.c **** #ifndef PB_WITHOUT_64BIT
 797:Src/pb_encode.c ****     return pb_encode_fixed64(stream, src);
 798:Src/pb_encode.c **** #else
 799:Src/pb_encode.c ****     PB_UNUSED(src);
 800:Src/pb_encode.c ****     PB_RETURN_ERROR(stream, "no 64bit support");
 801:Src/pb_encode.c **** #endif
 802:Src/pb_encode.c **** }
 803:Src/pb_encode.c **** 
 804:Src/pb_encode.c **** static bool checkreturn pb_enc_fixed32(pb_ostream_t *stream, const pb_field_t *field, const void *s
 805:Src/pb_encode.c **** {
 1143              		.loc 1 805 1 is_stmt 1 view -0
 1144              		.cfi_startproc
 1145              		@ args = 0, pretend = 0, frame = 0
 1146              		@ frame_needed = 0, uses_anonymous_args = 0
 1147              		.loc 1 805 1 is_stmt 0 view .LVU325
 1148 0000 08B5     		push	{r3, lr}
 1149              	.LCFI21:
 1150              		.cfi_def_cfa_offset 8
 1151              		.cfi_offset 3, -8
 1152              		.cfi_offset 14, -4
 806:Src/pb_encode.c ****     PB_UNUSED(field);
 1153              		.loc 1 806 5 is_stmt 1 view .LVU326
ARM GAS  C:\Users\grgcz\AppData\Local\Temp\ccHl8fYU.s 			page 39


 807:Src/pb_encode.c ****     return pb_encode_fixed32(stream, src);
 1154              		.loc 1 807 5 view .LVU327
 1155              		.loc 1 807 12 is_stmt 0 view .LVU328
 1156 0002 1146     		mov	r1, r2
 1157              	.LVL121:
 1158              		.loc 1 807 12 view .LVU329
 1159 0004 FFF7FEFF 		bl	pb_encode_fixed32
 1160              	.LVL122:
 808:Src/pb_encode.c **** }
 1161              		.loc 1 808 1 view .LVU330
 1162 0008 08BD     		pop	{r3, pc}
 1163              		.cfi_endproc
 1164              	.LFE27:
 1166              		.section	.text.pb_encode_fixed64,"ax",%progbits
 1167              		.align	1
 1168              		.global	pb_encode_fixed64
 1169              		.syntax unified
 1170              		.thumb
 1171              		.thumb_func
 1172              		.fpu fpv4-sp-d16
 1174              	pb_encode_fixed64:
 1175              	.LVL123:
 1176              	.LFB18:
 620:Src/pb_encode.c ****     uint64_t val = *(const uint64_t*)value;
 1177              		.loc 1 620 1 is_stmt 1 view -0
 1178              		.cfi_startproc
 1179              		@ args = 0, pretend = 0, frame = 8
 1180              		@ frame_needed = 0, uses_anonymous_args = 0
 620:Src/pb_encode.c ****     uint64_t val = *(const uint64_t*)value;
 1181              		.loc 1 620 1 is_stmt 0 view .LVU332
 1182 0000 00B5     		push	{lr}
 1183              	.LCFI22:
 1184              		.cfi_def_cfa_offset 4
 1185              		.cfi_offset 14, -4
 1186 0002 83B0     		sub	sp, sp, #12
 1187              	.LCFI23:
 1188              		.cfi_def_cfa_offset 16
 621:Src/pb_encode.c ****     pb_byte_t bytes[8];
 1189              		.loc 1 621 5 is_stmt 1 view .LVU333
 621:Src/pb_encode.c ****     pb_byte_t bytes[8];
 1190              		.loc 1 621 14 is_stmt 0 view .LVU334
 1191 0004 0A68     		ldr	r2, [r1]
 1192 0006 4B68     		ldr	r3, [r1, #4]
 1193              	.LVL124:
 622:Src/pb_encode.c ****     bytes[0] = (pb_byte_t)(val & 0xFF);
 1194              		.loc 1 622 5 is_stmt 1 view .LVU335
 623:Src/pb_encode.c ****     bytes[1] = (pb_byte_t)((val >> 8) & 0xFF);
 1195              		.loc 1 623 5 view .LVU336
 623:Src/pb_encode.c ****     bytes[1] = (pb_byte_t)((val >> 8) & 0xFF);
 1196              		.loc 1 623 14 is_stmt 0 view .LVU337
 1197 0008 8DF80020 		strb	r2, [sp]
 624:Src/pb_encode.c ****     bytes[2] = (pb_byte_t)((val >> 16) & 0xFF);
 1198              		.loc 1 624 5 is_stmt 1 view .LVU338
 624:Src/pb_encode.c ****     bytes[2] = (pb_byte_t)((val >> 16) & 0xFF);
 1199              		.loc 1 624 16 is_stmt 0 view .LVU339
 1200 000c C2F30721 		ubfx	r1, r2, #8, #8
 1201              	.LVL125:
ARM GAS  C:\Users\grgcz\AppData\Local\Temp\ccHl8fYU.s 			page 40


 624:Src/pb_encode.c ****     bytes[2] = (pb_byte_t)((val >> 16) & 0xFF);
 1202              		.loc 1 624 14 view .LVU340
 1203 0010 8DF80110 		strb	r1, [sp, #1]
 625:Src/pb_encode.c ****     bytes[3] = (pb_byte_t)((val >> 24) & 0xFF);
 1204              		.loc 1 625 5 is_stmt 1 view .LVU341
 625:Src/pb_encode.c ****     bytes[3] = (pb_byte_t)((val >> 24) & 0xFF);
 1205              		.loc 1 625 16 is_stmt 0 view .LVU342
 1206 0014 C2F30741 		ubfx	r1, r2, #16, #8
 625:Src/pb_encode.c ****     bytes[3] = (pb_byte_t)((val >> 24) & 0xFF);
 1207              		.loc 1 625 14 view .LVU343
 1208 0018 8DF80210 		strb	r1, [sp, #2]
 626:Src/pb_encode.c ****     bytes[4] = (pb_byte_t)((val >> 32) & 0xFF);
 1209              		.loc 1 626 5 is_stmt 1 view .LVU344
 626:Src/pb_encode.c ****     bytes[4] = (pb_byte_t)((val >> 32) & 0xFF);
 1210              		.loc 1 626 16 is_stmt 0 view .LVU345
 1211 001c 120E     		lsrs	r2, r2, #24
 1212              	.LVL126:
 626:Src/pb_encode.c ****     bytes[4] = (pb_byte_t)((val >> 32) & 0xFF);
 1213              		.loc 1 626 14 view .LVU346
 1214 001e 8DF80320 		strb	r2, [sp, #3]
 627:Src/pb_encode.c ****     bytes[5] = (pb_byte_t)((val >> 40) & 0xFF);
 1215              		.loc 1 627 5 is_stmt 1 view .LVU347
 627:Src/pb_encode.c ****     bytes[5] = (pb_byte_t)((val >> 40) & 0xFF);
 1216              		.loc 1 627 14 is_stmt 0 view .LVU348
 1217 0022 8DF80430 		strb	r3, [sp, #4]
 628:Src/pb_encode.c ****     bytes[6] = (pb_byte_t)((val >> 48) & 0xFF);
 1218              		.loc 1 628 5 is_stmt 1 view .LVU349
 628:Src/pb_encode.c ****     bytes[6] = (pb_byte_t)((val >> 48) & 0xFF);
 1219              		.loc 1 628 16 is_stmt 0 view .LVU350
 1220 0026 C3F30722 		ubfx	r2, r3, #8, #8
 628:Src/pb_encode.c ****     bytes[6] = (pb_byte_t)((val >> 48) & 0xFF);
 1221              		.loc 1 628 14 view .LVU351
 1222 002a 8DF80520 		strb	r2, [sp, #5]
 629:Src/pb_encode.c ****     bytes[7] = (pb_byte_t)((val >> 56) & 0xFF);
 1223              		.loc 1 629 5 is_stmt 1 view .LVU352
 629:Src/pb_encode.c ****     bytes[7] = (pb_byte_t)((val >> 56) & 0xFF);
 1224              		.loc 1 629 16 is_stmt 0 view .LVU353
 1225 002e C3F30742 		ubfx	r2, r3, #16, #8
 629:Src/pb_encode.c ****     bytes[7] = (pb_byte_t)((val >> 56) & 0xFF);
 1226              		.loc 1 629 14 view .LVU354
 1227 0032 8DF80620 		strb	r2, [sp, #6]
 630:Src/pb_encode.c ****     return pb_write(stream, bytes, 8);
 1228              		.loc 1 630 5 is_stmt 1 view .LVU355
 630:Src/pb_encode.c ****     return pb_write(stream, bytes, 8);
 1229              		.loc 1 630 16 is_stmt 0 view .LVU356
 1230 0036 1B0E     		lsrs	r3, r3, #24
 630:Src/pb_encode.c ****     return pb_write(stream, bytes, 8);
 1231              		.loc 1 630 14 view .LVU357
 1232 0038 8DF80730 		strb	r3, [sp, #7]
 631:Src/pb_encode.c **** }
 1233              		.loc 1 631 5 is_stmt 1 view .LVU358
 631:Src/pb_encode.c **** }
 1234              		.loc 1 631 12 is_stmt 0 view .LVU359
 1235 003c 0822     		movs	r2, #8
 1236 003e 6946     		mov	r1, sp
 1237 0040 FFF7FEFF 		bl	pb_write
 1238              	.LVL127:
ARM GAS  C:\Users\grgcz\AppData\Local\Temp\ccHl8fYU.s 			page 41


 632:Src/pb_encode.c **** #endif
 1239              		.loc 1 632 1 view .LVU360
 1240 0044 03B0     		add	sp, sp, #12
 1241              	.LCFI24:
 1242              		.cfi_def_cfa_offset 4
 1243              		@ sp needed
 1244 0046 5DF804FB 		ldr	pc, [sp], #4
 1245              		.cfi_endproc
 1246              	.LFE18:
 1248              		.section	.text.pb_enc_fixed64,"ax",%progbits
 1249              		.align	1
 1250              		.syntax unified
 1251              		.thumb
 1252              		.thumb_func
 1253              		.fpu fpv4-sp-d16
 1255              	pb_enc_fixed64:
 1256              	.LVL128:
 1257              	.LFB26:
 794:Src/pb_encode.c ****     PB_UNUSED(field);
 1258              		.loc 1 794 1 is_stmt 1 view -0
 1259              		.cfi_startproc
 1260              		@ args = 0, pretend = 0, frame = 0
 1261              		@ frame_needed = 0, uses_anonymous_args = 0
 794:Src/pb_encode.c ****     PB_UNUSED(field);
 1262              		.loc 1 794 1 is_stmt 0 view .LVU362
 1263 0000 08B5     		push	{r3, lr}
 1264              	.LCFI25:
 1265              		.cfi_def_cfa_offset 8
 1266              		.cfi_offset 3, -8
 1267              		.cfi_offset 14, -4
 795:Src/pb_encode.c **** #ifndef PB_WITHOUT_64BIT
 1268              		.loc 1 795 5 is_stmt 1 view .LVU363
 797:Src/pb_encode.c **** #else
 1269              		.loc 1 797 5 view .LVU364
 797:Src/pb_encode.c **** #else
 1270              		.loc 1 797 12 is_stmt 0 view .LVU365
 1271 0002 1146     		mov	r1, r2
 1272              	.LVL129:
 797:Src/pb_encode.c **** #else
 1273              		.loc 1 797 12 view .LVU366
 1274 0004 FFF7FEFF 		bl	pb_encode_fixed64
 1275              	.LVL130:
 802:Src/pb_encode.c **** 
 1276              		.loc 1 802 1 view .LVU367
 1277 0008 08BD     		pop	{r3, pc}
 1278              		.cfi_endproc
 1279              	.LFE26:
 1281              		.section	.text.pb_encode_tag,"ax",%progbits
 1282              		.align	1
 1283              		.global	pb_encode_tag
 1284              		.syntax unified
 1285              		.thumb
 1286              		.thumb_func
 1287              		.fpu fpv4-sp-d16
 1289              	pb_encode_tag:
 1290              	.LVL131:
 1291              	.LFB19:
ARM GAS  C:\Users\grgcz\AppData\Local\Temp\ccHl8fYU.s 			page 42


 636:Src/pb_encode.c ****     pb_uint64_t tag = ((pb_uint64_t)field_number << 3) | wiretype;
 1292              		.loc 1 636 1 is_stmt 1 view -0
 1293              		.cfi_startproc
 1294              		@ args = 0, pretend = 0, frame = 0
 1295              		@ frame_needed = 0, uses_anonymous_args = 0
 636:Src/pb_encode.c ****     pb_uint64_t tag = ((pb_uint64_t)field_number << 3) | wiretype;
 1296              		.loc 1 636 1 is_stmt 0 view .LVU369
 1297 0000 08B5     		push	{r3, lr}
 1298              	.LCFI26:
 1299              		.cfi_def_cfa_offset 8
 1300              		.cfi_offset 3, -8
 1301              		.cfi_offset 14, -4
 1302 0002 1346     		mov	r3, r2
 637:Src/pb_encode.c ****     return pb_encode_varint(stream, tag);
 1303              		.loc 1 637 5 is_stmt 1 view .LVU370
 1304              	.LVL132:
 638:Src/pb_encode.c **** }
 1305              		.loc 1 638 5 view .LVU371
 638:Src/pb_encode.c **** }
 1306              		.loc 1 638 12 is_stmt 0 view .LVU372
 1307 0004 41EAC202 		orr	r2, r1, r2, lsl #3
 1308              	.LVL133:
 638:Src/pb_encode.c **** }
 1309              		.loc 1 638 12 view .LVU373
 1310 0008 5B0F     		lsrs	r3, r3, #29
 1311              	.LVL134:
 638:Src/pb_encode.c **** }
 1312              		.loc 1 638 12 view .LVU374
 1313 000a FFF7FEFF 		bl	pb_encode_varint
 1314              	.LVL135:
 639:Src/pb_encode.c **** 
 1315              		.loc 1 639 1 view .LVU375
 1316 000e 08BD     		pop	{r3, pc}
 1317              		.cfi_endproc
 1318              	.LFE19:
 1320              		.section	.text.pb_encode_tag_for_field,"ax",%progbits
 1321              		.align	1
 1322              		.global	pb_encode_tag_for_field
 1323              		.syntax unified
 1324              		.thumb
 1325              		.thumb_func
 1326              		.fpu fpv4-sp-d16
 1328              	pb_encode_tag_for_field:
 1329              	.LVL136:
 1330              	.LFB20:
 642:Src/pb_encode.c ****     pb_wire_type_t wiretype;
 1331              		.loc 1 642 1 is_stmt 1 view -0
 1332              		.cfi_startproc
 1333              		@ args = 0, pretend = 0, frame = 0
 1334              		@ frame_needed = 0, uses_anonymous_args = 0
 642:Src/pb_encode.c ****     pb_wire_type_t wiretype;
 1335              		.loc 1 642 1 is_stmt 0 view .LVU377
 1336 0000 10B5     		push	{r4, lr}
 1337              	.LCFI27:
 1338              		.cfi_def_cfa_offset 8
 1339              		.cfi_offset 4, -8
 1340              		.cfi_offset 14, -4
ARM GAS  C:\Users\grgcz\AppData\Local\Temp\ccHl8fYU.s 			page 43


 643:Src/pb_encode.c ****     switch (PB_LTYPE(field->type))
 1341              		.loc 1 643 5 is_stmt 1 view .LVU378
 644:Src/pb_encode.c ****     {
 1342              		.loc 1 644 5 view .LVU379
 644:Src/pb_encode.c ****     {
 1343              		.loc 1 644 13 is_stmt 0 view .LVU380
 1344 0002 8B78     		ldrb	r3, [r1, #2]	@ zero_extendqisi2
 644:Src/pb_encode.c ****     {
 1345              		.loc 1 644 5 view .LVU381
 1346 0004 03F00F03 		and	r3, r3, #15
 1347 0008 092B     		cmp	r3, #9
 1348 000a 0AD8     		bhi	.L132
 1349 000c DFE803F0 		tbb	[pc, r3]
 1350              	.L134:
 1351 0010 10       		.byte	(.L137-.L134)/2
 1352 0011 10       		.byte	(.L137-.L134)/2
 1353 0012 10       		.byte	(.L137-.L134)/2
 1354 0013 12       		.byte	(.L140-.L134)/2
 1355 0014 05       		.byte	(.L135-.L134)/2
 1356 0015 07       		.byte	(.L133-.L134)/2
 1357 0016 07       		.byte	(.L133-.L134)/2
 1358 0017 07       		.byte	(.L133-.L134)/2
 1359 0018 09       		.byte	(.L132-.L134)/2
 1360 0019 07       		.byte	(.L133-.L134)/2
 1361              		.p2align 1
 1362              	.L135:
 657:Src/pb_encode.c ****             break;
 1363              		.loc 1 657 13 is_stmt 1 view .LVU382
 1364              	.LVL137:
 658:Src/pb_encode.c ****         
 1365              		.loc 1 658 13 view .LVU383
 657:Src/pb_encode.c ****             break;
 1366              		.loc 1 657 22 is_stmt 0 view .LVU384
 1367 001a 0124     		movs	r4, #1
 658:Src/pb_encode.c ****         
 1368              		.loc 1 658 13 view .LVU385
 1369 001c 0BE0     		b	.L136
 1370              	.LVL138:
 1371              	.L133:
 664:Src/pb_encode.c ****             break;
 1372              		.loc 1 664 13 is_stmt 1 view .LVU386
 665:Src/pb_encode.c ****         
 1373              		.loc 1 665 13 view .LVU387
 664:Src/pb_encode.c ****             break;
 1374              		.loc 1 664 22 is_stmt 0 view .LVU388
 1375 001e 0224     		movs	r4, #2
 665:Src/pb_encode.c ****         
 1376              		.loc 1 665 13 view .LVU389
 1377 0020 09E0     		b	.L136
 1378              	.LVL139:
 1379              	.L132:
 668:Src/pb_encode.c ****     }
 1380              		.loc 1 668 13 is_stmt 1 view .LVU390
 1381 0022 0369     		ldr	r3, [r0, #16]
 1382 0024 13B1     		cbz	r3, .L142
 1383              	.L138:
 668:Src/pb_encode.c ****     }
ARM GAS  C:\Users\grgcz\AppData\Local\Temp\ccHl8fYU.s 			page 44


 1384              		.loc 1 668 13 is_stmt 0 discriminator 4 view .LVU391
 1385 0026 0361     		str	r3, [r0, #16]
 1386 0028 0020     		movs	r0, #0
 1387              	.LVL140:
 668:Src/pb_encode.c ****     }
 1388              		.loc 1 668 13 discriminator 4 view .LVU392
 1389 002a 08E0     		b	.L139
 1390              	.LVL141:
 1391              	.L142:
 668:Src/pb_encode.c ****     }
 1392              		.loc 1 668 13 view .LVU393
 1393 002c 044B     		ldr	r3, .L143
 1394 002e FAE7     		b	.L138
 1395              	.L137:
 649:Src/pb_encode.c ****             break;
 1396              		.loc 1 649 22 view .LVU394
 1397 0030 0024     		movs	r4, #0
 1398 0032 00E0     		b	.L136
 1399              	.L140:
 653:Src/pb_encode.c ****             break;
 1400              		.loc 1 653 22 view .LVU395
 1401 0034 0524     		movs	r4, #5
 1402              	.L136:
 1403              	.LVL142:
 671:Src/pb_encode.c **** }
 1404              		.loc 1 671 5 is_stmt 1 view .LVU396
 671:Src/pb_encode.c **** }
 1405              		.loc 1 671 12 is_stmt 0 view .LVU397
 1406 0036 0A88     		ldrh	r2, [r1]	@ unaligned
 1407 0038 2146     		mov	r1, r4
 1408              	.LVL143:
 671:Src/pb_encode.c **** }
 1409              		.loc 1 671 12 view .LVU398
 1410 003a FFF7FEFF 		bl	pb_encode_tag
 1411              	.LVL144:
 1412              	.L139:
 672:Src/pb_encode.c **** 
 1413              		.loc 1 672 1 view .LVU399
 1414 003e 10BD     		pop	{r4, pc}
 1415              	.L144:
 1416              		.align	2
 1417              	.L143:
 1418 0040 00000000 		.word	.LC4
 1419              		.cfi_endproc
 1420              	.LFE20:
 1422              		.section	.text.encode_array,"ax",%progbits
 1423              		.align	1
 1424              		.syntax unified
 1425              		.thumb
 1426              		.thumb_func
 1427              		.fpu fpv4-sp-d16
 1429              	encode_array:
 1430              	.LVL145:
 1431              	.LFB3:
 128:Src/pb_encode.c ****     size_t i;
 1432              		.loc 1 128 1 is_stmt 1 view -0
 1433              		.cfi_startproc
ARM GAS  C:\Users\grgcz\AppData\Local\Temp\ccHl8fYU.s 			page 45


 1434              		@ args = 4, pretend = 0, frame = 24
 1435              		@ frame_needed = 0, uses_anonymous_args = 0
 128:Src/pb_encode.c ****     size_t i;
 1436              		.loc 1 128 1 is_stmt 0 view .LVU401
 1437 0000 2DE9F04F 		push	{r4, r5, r6, r7, r8, r9, r10, fp, lr}
 1438              	.LCFI28:
 1439              		.cfi_def_cfa_offset 36
 1440              		.cfi_offset 4, -36
 1441              		.cfi_offset 5, -32
 1442              		.cfi_offset 6, -28
 1443              		.cfi_offset 7, -24
 1444              		.cfi_offset 8, -20
 1445              		.cfi_offset 9, -16
 1446              		.cfi_offset 10, -12
 1447              		.cfi_offset 11, -8
 1448              		.cfi_offset 14, -4
 1449 0004 87B0     		sub	sp, sp, #28
 1450              	.LCFI29:
 1451              		.cfi_def_cfa_offset 64
 1452 0006 DDF84090 		ldr	r9, [sp, #64]
 129:Src/pb_encode.c ****     const void *p;
 1453              		.loc 1 129 5 is_stmt 1 view .LVU402
 130:Src/pb_encode.c ****     size_t size;
 1454              		.loc 1 130 5 view .LVU403
 131:Src/pb_encode.c ****     
 1455              		.loc 1 131 5 view .LVU404
 133:Src/pb_encode.c ****         return true;
 1456              		.loc 1 133 5 view .LVU405
 133:Src/pb_encode.c ****         return true;
 1457              		.loc 1 133 8 is_stmt 0 view .LVU406
 1458 000a 002B     		cmp	r3, #0
 1459 000c 00F08C80 		beq	.L161
 1460 0010 0746     		mov	r7, r0
 1461 0012 0C46     		mov	r4, r1
 1462 0014 1546     		mov	r5, r2
 1463 0016 9846     		mov	r8, r3
 136:Src/pb_encode.c ****         PB_RETURN_ERROR(stream, "array max size exceeded");
 1464              		.loc 1 136 5 is_stmt 1 view .LVU407
 136:Src/pb_encode.c ****         PB_RETURN_ERROR(stream, "array max size exceeded");
 1465              		.loc 1 136 9 is_stmt 0 view .LVU408
 1466 0018 8B78     		ldrb	r3, [r1, #2]	@ zero_extendqisi2
 1467              	.LVL146:
 136:Src/pb_encode.c ****         PB_RETURN_ERROR(stream, "array max size exceeded");
 1468              		.loc 1 136 8 view .LVU409
 1469 001a 03F0C002 		and	r2, r3, #192
 1470              	.LVL147:
 136:Src/pb_encode.c ****         PB_RETURN_ERROR(stream, "array max size exceeded");
 1471              		.loc 1 136 8 view .LVU410
 1472 001e 802A     		cmp	r2, #128
 1473 0020 03D0     		beq	.L147
 136:Src/pb_encode.c ****         PB_RETURN_ERROR(stream, "array max size exceeded");
 1474              		.loc 1 136 67 discriminator 1 view .LVU411
 1475 0022 B1F80920 		ldrh	r2, [r1, #9]	@ unaligned
 136:Src/pb_encode.c ****         PB_RETURN_ERROR(stream, "array max size exceeded");
 1476              		.loc 1 136 51 discriminator 1 view .LVU412
 1477 0026 4245     		cmp	r2, r8
 1478 0028 05D3     		bcc	.L166
ARM GAS  C:\Users\grgcz\AppData\Local\Temp\ccHl8fYU.s 			page 46


 1479              	.L147:
 140:Src/pb_encode.c ****     {
 1480              		.loc 1 140 5 is_stmt 1 view .LVU413
 140:Src/pb_encode.c ****     {
 1481              		.loc 1 140 8 is_stmt 0 view .LVU414
 1482 002a 03F00F03 		and	r3, r3, #15
 1483 002e 042B     		cmp	r3, #4
 1484 0030 09D9     		bls	.L167
 185:Src/pb_encode.c ****         {
 1485              		.loc 1 185 16 view .LVU415
 1486 0032 0026     		movs	r6, #0
 1487 0034 5BE0     		b	.L149
 1488              	.L166:
 137:Src/pb_encode.c ****     
 1489              		.loc 1 137 9 is_stmt 1 view .LVU416
 1490 0036 0369     		ldr	r3, [r0, #16]
 1491 0038 1BB1     		cbz	r3, .L168
 1492              	.L148:
 137:Src/pb_encode.c ****     
 1493              		.loc 1 137 9 is_stmt 0 discriminator 4 view .LVU417
 1494 003a 3B61     		str	r3, [r7, #16]
 1495 003c 4FF0000A 		mov	r10, #0
 1496 0040 74E0     		b	.L146
 1497              	.L168:
 137:Src/pb_encode.c ****     
 1498              		.loc 1 137 9 view .LVU418
 1499 0042 3D4B     		ldr	r3, .L174
 1500 0044 F9E7     		b	.L148
 1501              	.L167:
 142:Src/pb_encode.c ****             return false;
 1502              		.loc 1 142 9 is_stmt 1 view .LVU419
 142:Src/pb_encode.c ****             return false;
 1503              		.loc 1 142 14 is_stmt 0 view .LVU420
 1504 0046 2288     		ldrh	r2, [r4]	@ unaligned
 1505 0048 0221     		movs	r1, #2
 1506              	.LVL148:
 142:Src/pb_encode.c ****             return false;
 1507              		.loc 1 142 14 view .LVU421
 1508 004a 3846     		mov	r0, r7
 1509              	.LVL149:
 142:Src/pb_encode.c ****             return false;
 1510              		.loc 1 142 14 view .LVU422
 1511 004c FFF7FEFF 		bl	pb_encode_tag
 1512              	.LVL150:
 142:Src/pb_encode.c ****             return false;
 1513              		.loc 1 142 12 view .LVU423
 1514 0050 8246     		mov	r10, r0
 1515 0052 0028     		cmp	r0, #0
 1516 0054 6AD0     		beq	.L146
 146:Src/pb_encode.c ****         {
 1517              		.loc 1 146 9 is_stmt 1 view .LVU424
 146:Src/pb_encode.c ****         {
 1518              		.loc 1 146 13 is_stmt 0 view .LVU425
 1519 0056 A378     		ldrb	r3, [r4, #2]	@ zero_extendqisi2
 1520 0058 03F00F03 		and	r3, r3, #15
 146:Src/pb_encode.c ****         {
 1521              		.loc 1 146 12 view .LVU426
ARM GAS  C:\Users\grgcz\AppData\Local\Temp\ccHl8fYU.s 			page 47


 1522 005c 032B     		cmp	r3, #3
 1523 005e 16D0     		beq	.L169
 150:Src/pb_encode.c ****         {
 1524              		.loc 1 150 14 is_stmt 1 view .LVU427
 150:Src/pb_encode.c ****         {
 1525              		.loc 1 150 17 is_stmt 0 view .LVU428
 1526 0060 042B     		cmp	r3, #4
 1527 0062 2ED0     		beq	.L170
 1528              	.LBB7:
 156:Src/pb_encode.c ****             p = pData;
 1529              		.loc 1 156 13 is_stmt 1 view .LVU429
 156:Src/pb_encode.c ****             p = pData;
 1530              		.loc 1 156 26 is_stmt 0 view .LVU430
 1531 0064 0026     		movs	r6, #0
 1532 0066 0196     		str	r6, [sp, #4]
 1533 0068 0296     		str	r6, [sp, #8]
 1534 006a 0396     		str	r6, [sp, #12]
 1535 006c 0496     		str	r6, [sp, #16]
 1536 006e 0596     		str	r6, [sp, #20]
 157:Src/pb_encode.c ****             for (i = 0; i < count; i++)
 1537              		.loc 1 157 13 is_stmt 1 view .LVU431
 1538              	.LVL151:
 158:Src/pb_encode.c ****             {
 1539              		.loc 1 158 13 view .LVU432
 157:Src/pb_encode.c ****             for (i = 0; i < count; i++)
 1540              		.loc 1 157 15 is_stmt 0 view .LVU433
 1541 0070 AB46     		mov	fp, r5
 1542              	.LVL152:
 1543              	.L153:
 158:Src/pb_encode.c ****             {
 1544              		.loc 1 158 13 discriminator 1 view .LVU434
 1545 0072 4645     		cmp	r6, r8
 1546 0074 28D2     		bcs	.L171
 160:Src/pb_encode.c ****                     return false;
 1547              		.loc 1 160 17 is_stmt 1 view .LVU435
 160:Src/pb_encode.c ****                     return false;
 1548              		.loc 1 160 22 is_stmt 0 view .LVU436
 1549 0076 5A46     		mov	r2, fp
 1550 0078 2146     		mov	r1, r4
 1551 007a 01A8     		add	r0, sp, #4
 1552 007c C847     		blx	r9
 1553              	.LVL153:
 160:Src/pb_encode.c ****                     return false;
 1554              		.loc 1 160 20 view .LVU437
 1555 007e 8246     		mov	r10, r0
 1556 0080 0028     		cmp	r0, #0
 1557 0082 53D0     		beq	.L146
 162:Src/pb_encode.c ****             }
 1558              		.loc 1 162 17 is_stmt 1 discriminator 2 view .LVU438
 162:Src/pb_encode.c ****             }
 1559              		.loc 1 162 43 is_stmt 0 discriminator 2 view .LVU439
 1560 0084 B4F80730 		ldrh	r3, [r4, #7]	@ unaligned
 162:Src/pb_encode.c ****             }
 1561              		.loc 1 162 19 discriminator 2 view .LVU440
 1562 0088 9B44     		add	fp, fp, r3
 1563              	.LVL154:
 158:Src/pb_encode.c ****             {
ARM GAS  C:\Users\grgcz\AppData\Local\Temp\ccHl8fYU.s 			page 48


 1564              		.loc 1 158 37 discriminator 2 view .LVU441
 1565 008a 0136     		adds	r6, r6, #1
 1566              	.LVL155:
 158:Src/pb_encode.c ****             {
 1567              		.loc 1 158 37 discriminator 2 view .LVU442
 1568 008c F1E7     		b	.L153
 1569              	.LVL156:
 1570              	.L169:
 158:Src/pb_encode.c ****             {
 1571              		.loc 1 158 37 discriminator 2 view .LVU443
 1572              	.LBE7:
 148:Src/pb_encode.c ****         }
 1573              		.loc 1 148 13 is_stmt 1 view .LVU444
 148:Src/pb_encode.c ****         }
 1574              		.loc 1 148 18 is_stmt 0 view .LVU445
 1575 008e 4FEA8806 		lsl	r6, r8, #2
 1576              	.LVL157:
 1577              	.L151:
 167:Src/pb_encode.c ****             return false;
 1578              		.loc 1 167 9 is_stmt 1 view .LVU446
 167:Src/pb_encode.c ****             return false;
 1579              		.loc 1 167 14 is_stmt 0 view .LVU447
 1580 0092 3246     		mov	r2, r6
 1581 0094 0023     		movs	r3, #0
 1582 0096 3846     		mov	r0, r7
 1583 0098 FFF7FEFF 		bl	pb_encode_varint
 1584              	.LVL158:
 167:Src/pb_encode.c ****             return false;
 1585              		.loc 1 167 12 view .LVU448
 1586 009c 8246     		mov	r10, r0
 1587 009e 0028     		cmp	r0, #0
 1588 00a0 44D0     		beq	.L146
 170:Src/pb_encode.c ****             return pb_write(stream, NULL, size); /* Just sizing.. */
 1589              		.loc 1 170 9 is_stmt 1 view .LVU449
 170:Src/pb_encode.c ****             return pb_write(stream, NULL, size); /* Just sizing.. */
 1590              		.loc 1 170 19 is_stmt 0 view .LVU450
 1591 00a2 3B68     		ldr	r3, [r7]
 170:Src/pb_encode.c ****             return pb_write(stream, NULL, size); /* Just sizing.. */
 1592              		.loc 1 170 12 view .LVU451
 1593 00a4 93B1     		cbz	r3, .L172
 175:Src/pb_encode.c ****         {
 1594              		.loc 1 175 16 view .LVU452
 1595 00a6 0026     		movs	r6, #0
 1596              	.LVL159:
 1597              	.L156:
 175:Src/pb_encode.c ****         {
 1598              		.loc 1 175 9 discriminator 1 view .LVU453
 1599 00a8 4645     		cmp	r6, r8
 1600 00aa 3FD2     		bcs	.L146
 177:Src/pb_encode.c ****                 return false;
 1601              		.loc 1 177 13 is_stmt 1 view .LVU454
 177:Src/pb_encode.c ****                 return false;
 1602              		.loc 1 177 18 is_stmt 0 view .LVU455
 1603 00ac 2A46     		mov	r2, r5
 1604 00ae 2146     		mov	r1, r4
 1605 00b0 3846     		mov	r0, r7
 1606 00b2 C847     		blx	r9
ARM GAS  C:\Users\grgcz\AppData\Local\Temp\ccHl8fYU.s 			page 49


 1607              	.LVL160:
 177:Src/pb_encode.c ****                 return false;
 1608              		.loc 1 177 16 view .LVU456
 1609 00b4 0028     		cmp	r0, #0
 1610 00b6 3DD0     		beq	.L164
 179:Src/pb_encode.c ****         }
 1611              		.loc 1 179 13 is_stmt 1 discriminator 2 view .LVU457
 179:Src/pb_encode.c ****         }
 1612              		.loc 1 179 39 is_stmt 0 discriminator 2 view .LVU458
 1613 00b8 B4F80730 		ldrh	r3, [r4, #7]	@ unaligned
 179:Src/pb_encode.c ****         }
 1614              		.loc 1 179 15 discriminator 2 view .LVU459
 1615 00bc 1D44     		add	r5, r5, r3
 1616              	.LVL161:
 175:Src/pb_encode.c ****         {
 1617              		.loc 1 175 33 discriminator 2 view .LVU460
 1618 00be 0136     		adds	r6, r6, #1
 1619              	.LVL162:
 175:Src/pb_encode.c ****         {
 1620              		.loc 1 175 33 discriminator 2 view .LVU461
 1621 00c0 F2E7     		b	.L156
 1622              	.LVL163:
 1623              	.L170:
 152:Src/pb_encode.c ****         }
 1624              		.loc 1 152 13 is_stmt 1 view .LVU462
 152:Src/pb_encode.c ****         }
 1625              		.loc 1 152 18 is_stmt 0 view .LVU463
 1626 00c2 4FEAC806 		lsl	r6, r8, #3
 1627              	.LVL164:
 152:Src/pb_encode.c ****         }
 1628              		.loc 1 152 18 view .LVU464
 1629 00c6 E4E7     		b	.L151
 1630              	.LVL165:
 1631              	.L171:
 1632              	.LBB8:
 164:Src/pb_encode.c ****         }
 1633              		.loc 1 164 13 is_stmt 1 view .LVU465
 164:Src/pb_encode.c ****         }
 1634              		.loc 1 164 18 is_stmt 0 view .LVU466
 1635 00c8 049E     		ldr	r6, [sp, #16]
 1636              	.LVL166:
 164:Src/pb_encode.c ****         }
 1637              		.loc 1 164 18 view .LVU467
 1638 00ca E2E7     		b	.L151
 1639              	.LVL167:
 1640              	.L172:
 164:Src/pb_encode.c ****         }
 1641              		.loc 1 164 18 view .LVU468
 1642              	.LBE8:
 171:Src/pb_encode.c ****         
 1643              		.loc 1 171 13 is_stmt 1 view .LVU469
 171:Src/pb_encode.c ****         
 1644              		.loc 1 171 20 is_stmt 0 view .LVU470
 1645 00cc 3246     		mov	r2, r6
 1646 00ce 0021     		movs	r1, #0
 1647 00d0 3846     		mov	r0, r7
 1648 00d2 FFF7FEFF 		bl	pb_write
ARM GAS  C:\Users\grgcz\AppData\Local\Temp\ccHl8fYU.s 			page 50


 1649              	.LVL168:
 1650 00d6 8246     		mov	r10, r0
 1651 00d8 28E0     		b	.L146
 1652              	.LVL169:
 1653              	.L158:
 203:Src/pb_encode.c ****                     return false;
 1654              		.loc 1 203 17 is_stmt 1 view .LVU471
 203:Src/pb_encode.c ****                     return false;
 1655              		.loc 1 203 22 is_stmt 0 view .LVU472
 1656 00da 2A46     		mov	r2, r5
 1657 00dc 2146     		mov	r1, r4
 1658 00de 3846     		mov	r0, r7
 1659 00e0 C847     		blx	r9
 1660              	.LVL170:
 203:Src/pb_encode.c ****                     return false;
 1661              		.loc 1 203 20 view .LVU473
 1662 00e2 8246     		mov	r10, r0
 1663 00e4 10B3     		cbz	r0, .L146
 1664              	.L159:
 206:Src/pb_encode.c ****         }
 1665              		.loc 1 206 13 is_stmt 1 discriminator 2 view .LVU474
 206:Src/pb_encode.c ****         }
 1666              		.loc 1 206 39 is_stmt 0 discriminator 2 view .LVU475
 1667 00e6 B4F80730 		ldrh	r3, [r4, #7]	@ unaligned
 206:Src/pb_encode.c ****         }
 1668              		.loc 1 206 15 discriminator 2 view .LVU476
 1669 00ea 1D44     		add	r5, r5, r3
 1670              	.LVL171:
 185:Src/pb_encode.c ****         {
 1671              		.loc 1 185 33 discriminator 2 view .LVU477
 1672 00ec 0136     		adds	r6, r6, #1
 1673              	.LVL172:
 1674              	.L149:
 185:Src/pb_encode.c ****         {
 1675              		.loc 1 185 9 discriminator 1 view .LVU478
 1676 00ee 4645     		cmp	r6, r8
 1677 00f0 17D2     		bcs	.L173
 187:Src/pb_encode.c ****                 return false;
 1678              		.loc 1 187 13 is_stmt 1 view .LVU479
 187:Src/pb_encode.c ****                 return false;
 1679              		.loc 1 187 18 is_stmt 0 view .LVU480
 1680 00f2 2146     		mov	r1, r4
 1681 00f4 3846     		mov	r0, r7
 1682 00f6 FFF7FEFF 		bl	pb_encode_tag_for_field
 1683              	.LVL173:
 187:Src/pb_encode.c ****                 return false;
 1684              		.loc 1 187 16 view .LVU481
 1685 00fa 8246     		mov	r10, r0
 1686 00fc B0B1     		cbz	r0, .L146
 194:Src/pb_encode.c ****                 (PB_LTYPE(field->type) == PB_LTYPE_STRING ||
 1687              		.loc 1 194 13 is_stmt 1 view .LVU482
 194:Src/pb_encode.c ****                 (PB_LTYPE(field->type) == PB_LTYPE_STRING ||
 1688              		.loc 1 194 17 is_stmt 0 view .LVU483
 1689 00fe A378     		ldrb	r3, [r4, #2]	@ zero_extendqisi2
 194:Src/pb_encode.c ****                 (PB_LTYPE(field->type) == PB_LTYPE_STRING ||
 1690              		.loc 1 194 16 view .LVU484
 1691 0100 03F0C002 		and	r2, r3, #192
ARM GAS  C:\Users\grgcz\AppData\Local\Temp\ccHl8fYU.s 			page 51


 1692 0104 802A     		cmp	r2, #128
 1693 0106 E8D1     		bne	.L158
 195:Src/pb_encode.c ****                  PB_LTYPE(field->type) == PB_LTYPE_BYTES))
 1694              		.loc 1 195 59 discriminator 1 view .LVU485
 1695 0108 03F00F03 		and	r3, r3, #15
 1696 010c 053B     		subs	r3, r3, #5
 194:Src/pb_encode.c ****                 (PB_LTYPE(field->type) == PB_LTYPE_STRING ||
 1697              		.loc 1 194 59 discriminator 1 view .LVU486
 1698 010e 012B     		cmp	r3, #1
 1699 0110 E3D8     		bhi	.L158
 198:Src/pb_encode.c ****                     return false;
 1700              		.loc 1 198 17 is_stmt 1 view .LVU487
 198:Src/pb_encode.c ****                     return false;
 1701              		.loc 1 198 22 is_stmt 0 view .LVU488
 1702 0112 2A68     		ldr	r2, [r5]
 1703 0114 2146     		mov	r1, r4
 1704 0116 3846     		mov	r0, r7
 1705 0118 C847     		blx	r9
 1706              	.LVL174:
 198:Src/pb_encode.c ****                     return false;
 1707              		.loc 1 198 20 view .LVU489
 1708 011a 8246     		mov	r10, r0
 1709 011c 0028     		cmp	r0, #0
 1710 011e E2D1     		bne	.L159
 1711 0120 04E0     		b	.L146
 1712              	.L173:
 210:Src/pb_encode.c **** }
 1713              		.loc 1 210 12 view .LVU490
 1714 0122 4FF0010A 		mov	r10, #1
 1715 0126 01E0     		b	.L146
 1716              	.LVL175:
 1717              	.L161:
 134:Src/pb_encode.c **** 
 1718              		.loc 1 134 16 view .LVU491
 1719 0128 4FF0010A 		mov	r10, #1
 1720              	.LVL176:
 1721              	.L146:
 211:Src/pb_encode.c **** 
 1722              		.loc 1 211 1 view .LVU492
 1723 012c 5046     		mov	r0, r10
 1724 012e 07B0     		add	sp, sp, #28
 1725              	.LCFI30:
 1726              		.cfi_remember_state
 1727              		.cfi_def_cfa_offset 36
 1728              		@ sp needed
 1729 0130 BDE8F08F 		pop	{r4, r5, r6, r7, r8, r9, r10, fp, pc}
 1730              	.LVL177:
 1731              	.L164:
 1732              	.LCFI31:
 1733              		.cfi_restore_state
 178:Src/pb_encode.c ****             p = (const char*)p + field->data_size;
 1734              		.loc 1 178 24 view .LVU493
 1735 0134 8246     		mov	r10, r0
 1736 0136 F9E7     		b	.L146
 1737              	.L175:
 1738              		.align	2
 1739              	.L174:
ARM GAS  C:\Users\grgcz\AppData\Local\Temp\ccHl8fYU.s 			page 52


 1740 0138 00000000 		.word	.LC5
 1741              		.cfi_endproc
 1742              	.LFE3:
 1744              		.section	.text.encode_basic_field,"ax",%progbits
 1745              		.align	1
 1746              		.syntax unified
 1747              		.thumb
 1748              		.thumb_func
 1749              		.fpu fpv4-sp-d16
 1751              	encode_basic_field:
 1752              	.LVL178:
 1753              	.LFB5:
 309:Src/pb_encode.c ****     pb_encoder_t func;
 1754              		.loc 1 309 1 is_stmt 1 view -0
 1755              		.cfi_startproc
 1756              		@ args = 0, pretend = 0, frame = 8
 1757              		@ frame_needed = 0, uses_anonymous_args = 0
 309:Src/pb_encode.c ****     pb_encoder_t func;
 1758              		.loc 1 309 1 is_stmt 0 view .LVU495
 1759 0000 F0B5     		push	{r4, r5, r6, r7, lr}
 1760              	.LCFI32:
 1761              		.cfi_def_cfa_offset 20
 1762              		.cfi_offset 4, -20
 1763              		.cfi_offset 5, -16
 1764              		.cfi_offset 6, -12
 1765              		.cfi_offset 7, -8
 1766              		.cfi_offset 14, -4
 1767 0002 85B0     		sub	sp, sp, #20
 1768              	.LCFI33:
 1769              		.cfi_def_cfa_offset 40
 1770 0004 0646     		mov	r6, r0
 1771 0006 0C46     		mov	r4, r1
 1772 0008 1546     		mov	r5, r2
 310:Src/pb_encode.c ****     bool implicit_has;
 1773              		.loc 1 310 5 is_stmt 1 view .LVU496
 311:Src/pb_encode.c ****     const void *pSize = &implicit_has;
 1774              		.loc 1 311 5 view .LVU497
 312:Src/pb_encode.c ****     
 1775              		.loc 1 312 5 view .LVU498
 1776              	.LVL179:
 314:Src/pb_encode.c ****     
 1777              		.loc 1 314 5 view .LVU499
 314:Src/pb_encode.c ****     
 1778              		.loc 1 314 24 is_stmt 0 view .LVU500
 1779 000a 8A78     		ldrb	r2, [r1, #2]	@ zero_extendqisi2
 1780              	.LVL180:
 314:Src/pb_encode.c ****     
 1781              		.loc 1 314 24 view .LVU501
 1782 000c 02F00F01 		and	r1, r2, #15
 1783              	.LVL181:
 314:Src/pb_encode.c ****     
 1784              		.loc 1 314 10 view .LVU502
 1785 0010 404B     		ldr	r3, .L204
 1786 0012 53F82170 		ldr	r7, [r3, r1, lsl #2]
 1787              	.LVL182:
 316:Src/pb_encode.c ****     {
 1788              		.loc 1 316 5 is_stmt 1 view .LVU503
ARM GAS  C:\Users\grgcz\AppData\Local\Temp\ccHl8fYU.s 			page 53


 316:Src/pb_encode.c ****     {
 1789              		.loc 1 316 14 is_stmt 0 view .LVU504
 1790 0016 B4F90530 		ldrsh	r3, [r4, #5]	@ unaligned
 316:Src/pb_encode.c ****     {
 1791              		.loc 1 316 8 view .LVU505
 1792 001a A3B1     		cbz	r3, .L177
 319:Src/pb_encode.c ****     }
 1793              		.loc 1 319 9 is_stmt 1 view .LVU506
 319:Src/pb_encode.c ****     }
 1794              		.loc 1 319 15 is_stmt 0 view .LVU507
 1795 001c EA18     		adds	r2, r5, r3
 1796              	.LVL183:
 1797              	.L178:
 332:Src/pb_encode.c ****     {
 1798              		.loc 1 332 5 is_stmt 1 view .LVU508
 332:Src/pb_encode.c ****     {
 1799              		.loc 1 332 9 is_stmt 0 view .LVU509
 1800 001e A378     		ldrb	r3, [r4, #2]	@ zero_extendqisi2
 332:Src/pb_encode.c ****     {
 1801              		.loc 1 332 8 view .LVU510
 1802 0020 03F0C001 		and	r1, r3, #192
 1803 0024 8029     		cmp	r1, #128
 1804 0026 23D0     		beq	.L196
 1805              	.L180:
 342:Src/pb_encode.c ****     {
 1806              		.loc 1 342 5 is_stmt 1 view .LVU511
 1807 0028 03F03003 		and	r3, r3, #48
 1808 002c 102B     		cmp	r3, #16
 1809 002e 3CD0     		beq	.L181
 342:Src/pb_encode.c ****     {
 1810              		.loc 1 342 5 is_stmt 0 view .LVU512
 1811 0030 25D9     		bls	.L197
 1812 0032 202B     		cmp	r3, #32
 1813 0034 49D0     		beq	.L185
 1814 0036 302B     		cmp	r3, #48
 1815 0038 65D1     		bne	.L184
 377:Src/pb_encode.c ****             {
 1816              		.loc 1 377 13 is_stmt 1 view .LVU513
 377:Src/pb_encode.c ****             {
 1817              		.loc 1 377 17 is_stmt 0 view .LVU514
 1818 003a 1288     		ldrh	r2, [r2]
 1819              	.LVL184:
 377:Src/pb_encode.c ****             {
 1820              		.loc 1 377 50 view .LVU515
 1821 003c 2388     		ldrh	r3, [r4]	@ unaligned
 377:Src/pb_encode.c ****             {
 1822              		.loc 1 377 16 view .LVU516
 1823 003e 9A42     		cmp	r2, r3
 1824 0040 54D0     		beq	.L198
 391:Src/pb_encode.c **** }
 1825              		.loc 1 391 12 view .LVU517
 1826 0042 0123     		movs	r3, #1
 1827 0044 4CE0     		b	.L189
 1828              	.LVL185:
 1829              	.L177:
 321:Src/pb_encode.c ****     {
 1830              		.loc 1 321 10 is_stmt 1 view .LVU518
ARM GAS  C:\Users\grgcz\AppData\Local\Temp\ccHl8fYU.s 			page 54


 321:Src/pb_encode.c ****     {
 1831              		.loc 1 321 13 is_stmt 0 view .LVU519
 1832 0046 02F03002 		and	r2, r2, #48
 1833 004a 102A     		cmp	r2, #16
 1834 004c 05D0     		beq	.L199
 329:Src/pb_encode.c ****     }
 1835              		.loc 1 329 9 is_stmt 1 view .LVU520
 329:Src/pb_encode.c ****     }
 1836              		.loc 1 329 22 is_stmt 0 view .LVU521
 1837 004e 0123     		movs	r3, #1
 1838 0050 8DF80F30 		strb	r3, [sp, #15]
 312:Src/pb_encode.c ****     
 1839              		.loc 1 312 17 view .LVU522
 1840 0054 0DF10F02 		add	r2, sp, #15
 1841              	.LVL186:
 312:Src/pb_encode.c ****     
 1842              		.loc 1 312 17 view .LVU523
 1843 0058 E1E7     		b	.L178
 1844              	.LVL187:
 1845              	.L199:
 324:Src/pb_encode.c ****     }
 1846              		.loc 1 324 9 is_stmt 1 view .LVU524
 324:Src/pb_encode.c ****     }
 1847              		.loc 1 324 25 is_stmt 0 view .LVU525
 1848 005a 2946     		mov	r1, r5
 1849 005c 2046     		mov	r0, r4
 1850              	.LVL188:
 324:Src/pb_encode.c ****     }
 1851              		.loc 1 324 25 view .LVU526
 1852 005e FFF7FEFF 		bl	pb_check_proto3_default_value
 1853              	.LVL189:
 324:Src/pb_encode.c ****     }
 1854              		.loc 1 324 9 view .LVU527
 1855 0062 80F00100 		eor	r0, r0, #1
 324:Src/pb_encode.c ****     }
 1856              		.loc 1 324 22 view .LVU528
 1857 0066 8DF80F00 		strb	r0, [sp, #15]
 312:Src/pb_encode.c ****     
 1858              		.loc 1 312 17 view .LVU529
 1859 006a 0DF10F02 		add	r2, sp, #15
 1860              	.LVL190:
 312:Src/pb_encode.c ****     
 1861              		.loc 1 312 17 view .LVU530
 1862 006e D6E7     		b	.L178
 1863              	.L196:
 338:Src/pb_encode.c ****         implicit_has = (pData != NULL);
 1864              		.loc 1 338 9 is_stmt 1 view .LVU531
 338:Src/pb_encode.c ****         implicit_has = (pData != NULL);
 1865              		.loc 1 338 15 is_stmt 0 view .LVU532
 1866 0070 2D68     		ldr	r5, [r5]
 1867              	.LVL191:
 339:Src/pb_encode.c ****     }
 1868              		.loc 1 339 9 is_stmt 1 view .LVU533
 339:Src/pb_encode.c ****     }
 1869              		.loc 1 339 31 is_stmt 0 view .LVU534
 1870 0072 291C     		adds	r1, r5, #0
 1871 0074 18BF     		it	ne
ARM GAS  C:\Users\grgcz\AppData\Local\Temp\ccHl8fYU.s 			page 55


 1872 0076 0121     		movne	r1, #1
 339:Src/pb_encode.c ****     }
 1873              		.loc 1 339 22 view .LVU535
 1874 0078 8DF80F10 		strb	r1, [sp, #15]
 1875 007c D4E7     		b	.L180
 1876              	.L197:
 342:Src/pb_encode.c ****     {
 1877              		.loc 1 342 5 view .LVU536
 1878 007e 002B     		cmp	r3, #0
 1879 0080 41D1     		bne	.L184
 345:Src/pb_encode.c ****                 PB_RETURN_ERROR(stream, "missing required field");
 1880              		.loc 1 345 13 is_stmt 1 view .LVU537
 345:Src/pb_encode.c ****                 PB_RETURN_ERROR(stream, "missing required field");
 1881              		.loc 1 345 16 is_stmt 0 view .LVU538
 1882 0082 5DB1     		cbz	r5, .L200
 347:Src/pb_encode.c ****                 return false;
 1883              		.loc 1 347 13 is_stmt 1 view .LVU539
 347:Src/pb_encode.c ****                 return false;
 1884              		.loc 1 347 18 is_stmt 0 view .LVU540
 1885 0084 2146     		mov	r1, r4
 1886 0086 3046     		mov	r0, r6
 1887 0088 FFF7FEFF 		bl	pb_encode_tag_for_field
 1888              	.LVL192:
 347:Src/pb_encode.c ****                 return false;
 1889              		.loc 1 347 16 view .LVU541
 1890 008c 0346     		mov	r3, r0
 1891 008e 38B3     		cbz	r0, .L189
 349:Src/pb_encode.c ****                 return false;
 1892              		.loc 1 349 13 is_stmt 1 view .LVU542
 349:Src/pb_encode.c ****                 return false;
 1893              		.loc 1 349 18 is_stmt 0 view .LVU543
 1894 0090 2A46     		mov	r2, r5
 1895 0092 2146     		mov	r1, r4
 1896 0094 3046     		mov	r0, r6
 1897 0096 B847     		blx	r7
 1898              	.LVL193:
 1899 0098 0346     		mov	r3, r0
 1900 009a 21E0     		b	.L189
 1901              	.LVL194:
 1902              	.L200:
 346:Src/pb_encode.c ****             if (!pb_encode_tag_for_field(stream, field))
 1903              		.loc 1 346 17 is_stmt 1 view .LVU544
 1904 009c 3369     		ldr	r3, [r6, #16]
 1905 009e 13B1     		cbz	r3, .L201
 1906              	.L188:
 346:Src/pb_encode.c ****             if (!pb_encode_tag_for_field(stream, field))
 1907              		.loc 1 346 17 is_stmt 0 discriminator 4 view .LVU545
 1908 00a0 3361     		str	r3, [r6, #16]
 1909 00a2 0023     		movs	r3, #0
 1910 00a4 1CE0     		b	.L189
 1911              	.L201:
 346:Src/pb_encode.c ****             if (!pb_encode_tag_for_field(stream, field))
 1912              		.loc 1 346 17 view .LVU546
 1913 00a6 1C4B     		ldr	r3, .L204+4
 1914 00a8 FAE7     		b	.L188
 1915              	.L181:
 354:Src/pb_encode.c ****             {
ARM GAS  C:\Users\grgcz\AppData\Local\Temp\ccHl8fYU.s 			page 56


 1916              		.loc 1 354 13 is_stmt 1 view .LVU547
 354:Src/pb_encode.c ****             {
 1917              		.loc 1 354 17 is_stmt 0 view .LVU548
 1918 00aa 1378     		ldrb	r3, [r2]	@ zero_extendqisi2
 354:Src/pb_encode.c ****             {
 1919              		.loc 1 354 16 view .LVU549
 1920 00ac 0BB9     		cbnz	r3, .L202
 391:Src/pb_encode.c **** }
 1921              		.loc 1 391 12 view .LVU550
 1922 00ae 0123     		movs	r3, #1
 1923 00b0 16E0     		b	.L189
 1924              	.L202:
 356:Src/pb_encode.c ****                     return false;
 1925              		.loc 1 356 17 is_stmt 1 view .LVU551
 356:Src/pb_encode.c ****                     return false;
 1926              		.loc 1 356 22 is_stmt 0 view .LVU552
 1927 00b2 2146     		mov	r1, r4
 1928 00b4 3046     		mov	r0, r6
 1929 00b6 FFF7FEFF 		bl	pb_encode_tag_for_field
 1930              	.LVL195:
 356:Src/pb_encode.c ****                     return false;
 1931              		.loc 1 356 20 view .LVU553
 1932 00ba 0346     		mov	r3, r0
 1933 00bc 80B1     		cbz	r0, .L189
 359:Src/pb_encode.c ****                     return false;
 1934              		.loc 1 359 17 is_stmt 1 view .LVU554
 359:Src/pb_encode.c ****                     return false;
 1935              		.loc 1 359 22 is_stmt 0 view .LVU555
 1936 00be 2A46     		mov	r2, r5
 1937 00c0 2146     		mov	r1, r4
 1938 00c2 3046     		mov	r0, r6
 1939 00c4 B847     		blx	r7
 1940              	.LVL196:
 1941 00c6 0346     		mov	r3, r0
 1942 00c8 0AE0     		b	.L189
 1943              	.LVL197:
 1944              	.L185:
 1945              	.LBB9:
 365:Src/pb_encode.c ****             if (field->size_offset != 0) {
 1946              		.loc 1 365 13 is_stmt 1 view .LVU556
 366:Src/pb_encode.c ****                 count = *(const pb_size_t*)pSize;
 1947              		.loc 1 366 13 view .LVU557
 366:Src/pb_encode.c ****                 count = *(const pb_size_t*)pSize;
 1948              		.loc 1 366 22 is_stmt 0 view .LVU558
 1949 00ca B4F90530 		ldrsh	r3, [r4, #5]	@ unaligned
 366:Src/pb_encode.c ****                 count = *(const pb_size_t*)pSize;
 1950              		.loc 1 366 16 view .LVU559
 1951 00ce 53B1     		cbz	r3, .L190
 367:Src/pb_encode.c ****             } else {
 1952              		.loc 1 367 17 is_stmt 1 view .LVU560
 367:Src/pb_encode.c ****             } else {
 1953              		.loc 1 367 23 is_stmt 0 view .LVU561
 1954 00d0 1388     		ldrh	r3, [r2]
 1955              	.LVL198:
 1956              	.L191:
 371:Src/pb_encode.c ****                 return false;
 1957              		.loc 1 371 13 is_stmt 1 view .LVU562
ARM GAS  C:\Users\grgcz\AppData\Local\Temp\ccHl8fYU.s 			page 57


 371:Src/pb_encode.c ****                 return false;
 1958              		.loc 1 371 18 is_stmt 0 view .LVU563
 1959 00d2 0097     		str	r7, [sp]
 1960 00d4 2A46     		mov	r2, r5
 1961              	.LVL199:
 371:Src/pb_encode.c ****                 return false;
 1962              		.loc 1 371 18 view .LVU564
 1963 00d6 2146     		mov	r1, r4
 1964 00d8 3046     		mov	r0, r6
 1965 00da FFF7FEFF 		bl	encode_array
 1966              	.LVL200:
 371:Src/pb_encode.c ****                 return false;
 1967              		.loc 1 371 18 view .LVU565
 1968 00de 0346     		mov	r3, r0
 1969              	.L189:
 371:Src/pb_encode.c ****                 return false;
 1970              		.loc 1 371 18 view .LVU566
 1971              	.LBE9:
 392:Src/pb_encode.c **** 
 1972              		.loc 1 392 1 view .LVU567
 1973 00e0 1846     		mov	r0, r3
 1974 00e2 05B0     		add	sp, sp, #20
 1975              	.LCFI34:
 1976              		.cfi_remember_state
 1977              		.cfi_def_cfa_offset 20
 1978              		@ sp needed
 1979 00e4 F0BD     		pop	{r4, r5, r6, r7, pc}
 1980              	.LVL201:
 1981              	.L190:
 1982              	.LCFI35:
 1983              		.cfi_restore_state
 1984              	.LBB10:
 369:Src/pb_encode.c ****             }
 1985              		.loc 1 369 17 is_stmt 1 view .LVU568
 369:Src/pb_encode.c ****             }
 1986              		.loc 1 369 23 is_stmt 0 view .LVU569
 1987 00e6 B4F80930 		ldrh	r3, [r4, #9]	@ unaligned
 1988              	.LVL202:
 369:Src/pb_encode.c ****             }
 1989              		.loc 1 369 23 view .LVU570
 1990 00ea F2E7     		b	.L191
 1991              	.LVL203:
 1992              	.L198:
 369:Src/pb_encode.c ****             }
 1993              		.loc 1 369 23 view .LVU571
 1994              	.LBE10:
 379:Src/pb_encode.c ****                     return false;
 1995              		.loc 1 379 17 is_stmt 1 view .LVU572
 379:Src/pb_encode.c ****                     return false;
 1996              		.loc 1 379 22 is_stmt 0 view .LVU573
 1997 00ec 2146     		mov	r1, r4
 1998 00ee 3046     		mov	r0, r6
 1999 00f0 FFF7FEFF 		bl	pb_encode_tag_for_field
 2000              	.LVL204:
 379:Src/pb_encode.c ****                     return false;
 2001              		.loc 1 379 20 view .LVU574
 2002 00f4 0346     		mov	r3, r0
ARM GAS  C:\Users\grgcz\AppData\Local\Temp\ccHl8fYU.s 			page 58


 2003 00f6 0028     		cmp	r0, #0
 2004 00f8 F2D0     		beq	.L189
 382:Src/pb_encode.c ****                     return false;
 2005              		.loc 1 382 17 is_stmt 1 view .LVU575
 382:Src/pb_encode.c ****                     return false;
 2006              		.loc 1 382 22 is_stmt 0 view .LVU576
 2007 00fa 2A46     		mov	r2, r5
 2008 00fc 2146     		mov	r1, r4
 2009 00fe 3046     		mov	r0, r6
 2010 0100 B847     		blx	r7
 2011              	.LVL205:
 2012 0102 0346     		mov	r3, r0
 2013 0104 ECE7     		b	.L189
 2014              	.LVL206:
 2015              	.L184:
 388:Src/pb_encode.c ****     }
 2016              		.loc 1 388 13 is_stmt 1 view .LVU577
 2017 0106 3369     		ldr	r3, [r6, #16]
 2018 0108 13B1     		cbz	r3, .L203
 2019              	.L192:
 388:Src/pb_encode.c ****     }
 2020              		.loc 1 388 13 is_stmt 0 discriminator 4 view .LVU578
 2021 010a 3361     		str	r3, [r6, #16]
 2022 010c 0023     		movs	r3, #0
 2023 010e E7E7     		b	.L189
 2024              	.L203:
 388:Src/pb_encode.c ****     }
 2025              		.loc 1 388 13 view .LVU579
 2026 0110 024B     		ldr	r3, .L204+8
 2027 0112 FAE7     		b	.L192
 2028              	.L205:
 2029              		.align	2
 2030              	.L204:
 2031 0114 00000000 		.word	.LANCHOR0
 2032 0118 00000000 		.word	.LC6
 2033 011c 00000000 		.word	.LC4
 2034              		.cfi_endproc
 2035              	.LFE5:
 2037              		.section	.text.encode_field,"ax",%progbits
 2038              		.align	1
 2039              		.syntax unified
 2040              		.thumb
 2041              		.thumb_func
 2042              		.fpu fpv4-sp-d16
 2044              	encode_field:
 2045              	.LVL207:
 2046              	.LFB7:
 418:Src/pb_encode.c ****     switch (PB_ATYPE(field->type))
 2047              		.loc 1 418 1 is_stmt 1 view -0
 2048              		.cfi_startproc
 2049              		@ args = 0, pretend = 0, frame = 0
 2050              		@ frame_needed = 0, uses_anonymous_args = 0
 418:Src/pb_encode.c ****     switch (PB_ATYPE(field->type))
 2051              		.loc 1 418 1 is_stmt 0 view .LVU581
 2052 0000 08B5     		push	{r3, lr}
 2053              	.LCFI36:
 2054              		.cfi_def_cfa_offset 8
ARM GAS  C:\Users\grgcz\AppData\Local\Temp\ccHl8fYU.s 			page 59


 2055              		.cfi_offset 3, -8
 2056              		.cfi_offset 14, -4
 419:Src/pb_encode.c ****     {
 2057              		.loc 1 419 5 is_stmt 1 view .LVU582
 419:Src/pb_encode.c ****     {
 2058              		.loc 1 419 13 is_stmt 0 view .LVU583
 2059 0002 8B78     		ldrb	r3, [r1, #2]	@ zero_extendqisi2
 2060 0004 03F0C003 		and	r3, r3, #192
 419:Src/pb_encode.c ****     {
 2061              		.loc 1 419 5 view .LVU584
 2062 0008 402B     		cmp	r3, #64
 2063 000a 0AD0     		beq	.L207
 2064 000c 802B     		cmp	r3, #128
 2065 000e 05D0     		beq	.L208
 2066 0010 23B1     		cbz	r3, .L208
 429:Src/pb_encode.c ****     }
 2067              		.loc 1 429 13 is_stmt 1 view .LVU585
 2068 0012 0369     		ldr	r3, [r0, #16]
 2069 0014 43B1     		cbz	r3, .L213
 2070              	.L211:
 429:Src/pb_encode.c ****     }
 2071              		.loc 1 429 13 is_stmt 0 discriminator 4 view .LVU586
 2072 0016 0361     		str	r3, [r0, #16]
 2073 0018 0020     		movs	r0, #0
 2074              	.LVL208:
 429:Src/pb_encode.c ****     }
 2075              		.loc 1 429 13 discriminator 4 view .LVU587
 2076 001a 01E0     		b	.L210
 2077              	.LVL209:
 2078              	.L208:
 423:Src/pb_encode.c ****         
 2079              		.loc 1 423 13 is_stmt 1 view .LVU588
 423:Src/pb_encode.c ****         
 2080              		.loc 1 423 20 is_stmt 0 view .LVU589
 2081 001c FFF7FEFF 		bl	encode_basic_field
 2082              	.LVL210:
 2083              	.L210:
 431:Src/pb_encode.c **** 
 2084              		.loc 1 431 1 view .LVU590
 2085 0020 08BD     		pop	{r3, pc}
 2086              	.LVL211:
 2087              	.L207:
 426:Src/pb_encode.c ****         
 2088              		.loc 1 426 13 is_stmt 1 view .LVU591
 426:Src/pb_encode.c ****         
 2089              		.loc 1 426 20 is_stmt 0 view .LVU592
 2090 0022 FFF7FEFF 		bl	encode_callback_field
 2091              	.LVL212:
 426:Src/pb_encode.c ****         
 2092              		.loc 1 426 20 view .LVU593
 2093 0026 FBE7     		b	.L210
 2094              	.LVL213:
 2095              	.L213:
 429:Src/pb_encode.c ****     }
 2096              		.loc 1 429 13 view .LVU594
 2097 0028 004B     		ldr	r3, .L214
 2098 002a F4E7     		b	.L211
ARM GAS  C:\Users\grgcz\AppData\Local\Temp\ccHl8fYU.s 			page 60


 2099              	.L215:
 2100              		.align	2
 2101              	.L214:
 2102 002c 00000000 		.word	.LC4
 2103              		.cfi_endproc
 2104              	.LFE7:
 2106              		.section	.text.default_extension_encoder,"ax",%progbits
 2107              		.align	1
 2108              		.syntax unified
 2109              		.thumb
 2110              		.thumb_func
 2111              		.fpu fpv4-sp-d16
 2113              	default_extension_encoder:
 2114              	.LVL214:
 2115              	.LFB8:
 437:Src/pb_encode.c ****     const pb_field_t *field = (const pb_field_t*)extension->type->arg;
 2116              		.loc 1 437 1 is_stmt 1 view -0
 2117              		.cfi_startproc
 2118              		@ args = 0, pretend = 0, frame = 0
 2119              		@ frame_needed = 0, uses_anonymous_args = 0
 437:Src/pb_encode.c ****     const pb_field_t *field = (const pb_field_t*)extension->type->arg;
 2120              		.loc 1 437 1 is_stmt 0 view .LVU596
 2121 0000 08B5     		push	{r3, lr}
 2122              	.LCFI37:
 2123              		.cfi_def_cfa_offset 8
 2124              		.cfi_offset 3, -8
 2125              		.cfi_offset 14, -4
 2126 0002 0A46     		mov	r2, r1
 438:Src/pb_encode.c ****     
 2127              		.loc 1 438 5 is_stmt 1 view .LVU597
 438:Src/pb_encode.c ****     
 2128              		.loc 1 438 59 is_stmt 0 view .LVU598
 2129 0004 0B68     		ldr	r3, [r1]
 438:Src/pb_encode.c ****     
 2130              		.loc 1 438 23 view .LVU599
 2131 0006 9968     		ldr	r1, [r3, #8]
 2132              	.LVL215:
 440:Src/pb_encode.c ****     {
 2133              		.loc 1 440 5 is_stmt 1 view .LVU600
 440:Src/pb_encode.c ****     {
 2134              		.loc 1 440 9 is_stmt 0 view .LVU601
 2135 0008 8B78     		ldrb	r3, [r1, #2]	@ zero_extendqisi2
 440:Src/pb_encode.c ****     {
 2136              		.loc 1 440 8 view .LVU602
 2137 000a 03F0C003 		and	r3, r3, #192
 2138 000e 802B     		cmp	r3, #128
 2139 0010 03D0     		beq	.L220
 449:Src/pb_encode.c ****     }
 2140              		.loc 1 449 9 is_stmt 1 view .LVU603
 449:Src/pb_encode.c ****     }
 2141              		.loc 1 449 16 is_stmt 0 view .LVU604
 2142 0012 5268     		ldr	r2, [r2, #4]
 2143              	.LVL216:
 449:Src/pb_encode.c ****     }
 2144              		.loc 1 449 16 view .LVU605
 2145 0014 FFF7FEFF 		bl	encode_field
 2146              	.LVL217:
ARM GAS  C:\Users\grgcz\AppData\Local\Temp\ccHl8fYU.s 			page 61


 2147              	.L218:
 451:Src/pb_encode.c **** 
 2148              		.loc 1 451 1 view .LVU606
 2149 0018 08BD     		pop	{r3, pc}
 2150              	.LVL218:
 2151              	.L220:
 445:Src/pb_encode.c ****     }
 2152              		.loc 1 445 9 is_stmt 1 view .LVU607
 445:Src/pb_encode.c ****     }
 2153              		.loc 1 445 16 is_stmt 0 view .LVU608
 2154 001a 0432     		adds	r2, r2, #4
 2155              	.LVL219:
 445:Src/pb_encode.c ****     }
 2156              		.loc 1 445 16 view .LVU609
 2157 001c FFF7FEFF 		bl	encode_field
 2158              	.LVL220:
 445:Src/pb_encode.c ****     }
 2159              		.loc 1 445 16 view .LVU610
 2160 0020 FAE7     		b	.L218
 2161              		.cfi_endproc
 2162              	.LFE8:
 2164              		.section	.text.encode_extension_field,"ax",%progbits
 2165              		.align	1
 2166              		.syntax unified
 2167              		.thumb
 2168              		.thumb_func
 2169              		.fpu fpv4-sp-d16
 2171              	encode_extension_field:
 2172              	.LVL221:
 2173              	.LFB9:
 457:Src/pb_encode.c ****     const pb_extension_t *extension = *(const pb_extension_t* const *)pData;
 2174              		.loc 1 457 1 is_stmt 1 view -0
 2175              		.cfi_startproc
 2176              		@ args = 0, pretend = 0, frame = 0
 2177              		@ frame_needed = 0, uses_anonymous_args = 0
 457:Src/pb_encode.c ****     const pb_extension_t *extension = *(const pb_extension_t* const *)pData;
 2178              		.loc 1 457 1 is_stmt 0 view .LVU612
 2179 0000 38B5     		push	{r3, r4, r5, lr}
 2180              	.LCFI38:
 2181              		.cfi_def_cfa_offset 16
 2182              		.cfi_offset 3, -16
 2183              		.cfi_offset 4, -12
 2184              		.cfi_offset 5, -8
 2185              		.cfi_offset 14, -4
 2186 0002 0546     		mov	r5, r0
 458:Src/pb_encode.c ****     PB_UNUSED(field);
 2187              		.loc 1 458 5 is_stmt 1 view .LVU613
 458:Src/pb_encode.c ****     PB_UNUSED(field);
 2188              		.loc 1 458 27 is_stmt 0 view .LVU614
 2189 0004 1468     		ldr	r4, [r2]
 2190              	.LVL222:
 459:Src/pb_encode.c ****     
 2191              		.loc 1 459 5 is_stmt 1 view .LVU615
 461:Src/pb_encode.c ****     {
 2192              		.loc 1 461 5 view .LVU616
 461:Src/pb_encode.c ****     {
 2193              		.loc 1 461 11 is_stmt 0 view .LVU617
ARM GAS  C:\Users\grgcz\AppData\Local\Temp\ccHl8fYU.s 			page 62


 2194 0006 05E0     		b	.L222
 2195              	.LVL223:
 2196              	.L223:
 2197              	.LBB11:
 467:Src/pb_encode.c **** 
 2198              		.loc 1 467 13 is_stmt 1 view .LVU618
 467:Src/pb_encode.c **** 
 2199              		.loc 1 467 22 is_stmt 0 view .LVU619
 2200 0008 2146     		mov	r1, r4
 2201 000a 2846     		mov	r0, r5
 2202 000c FFF7FEFF 		bl	default_extension_encoder
 2203              	.LVL224:
 2204              	.L224:
 469:Src/pb_encode.c ****             return false;
 2205              		.loc 1 469 9 is_stmt 1 view .LVU620
 469:Src/pb_encode.c ****             return false;
 2206              		.loc 1 469 12 is_stmt 0 view .LVU621
 2207 0010 50B1     		cbz	r0, .L225
 472:Src/pb_encode.c ****     }
 2208              		.loc 1 472 9 is_stmt 1 view .LVU622
 472:Src/pb_encode.c ****     }
 2209              		.loc 1 472 19 is_stmt 0 view .LVU623
 2210 0012 A468     		ldr	r4, [r4, #8]
 2211              	.LVL225:
 2212              	.L222:
 472:Src/pb_encode.c ****     }
 2213              		.loc 1 472 19 view .LVU624
 2214              	.LBE11:
 461:Src/pb_encode.c ****     {
 2215              		.loc 1 461 11 view .LVU625
 2216 0014 3CB1     		cbz	r4, .L228
 2217              	.LBB12:
 463:Src/pb_encode.c ****         if (extension->type->encode)
 2218              		.loc 1 463 9 is_stmt 1 view .LVU626
 464:Src/pb_encode.c ****             status = extension->type->encode(stream, extension);
 2219              		.loc 1 464 9 view .LVU627
 464:Src/pb_encode.c ****             status = extension->type->encode(stream, extension);
 2220              		.loc 1 464 22 is_stmt 0 view .LVU628
 2221 0016 2368     		ldr	r3, [r4]
 464:Src/pb_encode.c ****             status = extension->type->encode(stream, extension);
 2222              		.loc 1 464 28 view .LVU629
 2223 0018 5B68     		ldr	r3, [r3, #4]
 464:Src/pb_encode.c ****             status = extension->type->encode(stream, extension);
 2224              		.loc 1 464 12 view .LVU630
 2225 001a 002B     		cmp	r3, #0
 2226 001c F4D0     		beq	.L223
 465:Src/pb_encode.c ****         else
 2227              		.loc 1 465 13 is_stmt 1 view .LVU631
 465:Src/pb_encode.c ****         else
 2228              		.loc 1 465 22 is_stmt 0 view .LVU632
 2229 001e 2146     		mov	r1, r4
 2230 0020 2846     		mov	r0, r5
 2231 0022 9847     		blx	r3
 2232              	.LVL226:
 465:Src/pb_encode.c ****         else
 2233              		.loc 1 465 22 view .LVU633
 2234 0024 F4E7     		b	.L224
ARM GAS  C:\Users\grgcz\AppData\Local\Temp\ccHl8fYU.s 			page 63


 2235              	.LVL227:
 2236              	.L228:
 465:Src/pb_encode.c ****         else
 2237              		.loc 1 465 22 view .LVU634
 2238              	.LBE12:
 475:Src/pb_encode.c **** }
 2239              		.loc 1 475 12 view .LVU635
 2240 0026 0120     		movs	r0, #1
 2241              	.L225:
 476:Src/pb_encode.c **** 
 2242              		.loc 1 476 1 view .LVU636
 2243 0028 38BD     		pop	{r3, r4, r5, pc}
 476:Src/pb_encode.c **** 
 2244              		.loc 1 476 1 view .LVU637
 2245              		.cfi_endproc
 2246              	.LFE9:
 2248              		.section	.text.pb_encode,"ax",%progbits
 2249              		.align	1
 2250              		.global	pb_encode
 2251              		.syntax unified
 2252              		.thumb
 2253              		.thumb_func
 2254              		.fpu fpv4-sp-d16
 2256              	pb_encode:
 2257              	.LVL228:
 2258              	.LFB11:
 495:Src/pb_encode.c ****     pb_field_iter_t iter;
 2259              		.loc 1 495 1 is_stmt 1 view -0
 2260              		.cfi_startproc
 2261              		@ args = 0, pretend = 0, frame = 24
 2262              		@ frame_needed = 0, uses_anonymous_args = 0
 495:Src/pb_encode.c ****     pb_field_iter_t iter;
 2263              		.loc 1 495 1 is_stmt 0 view .LVU639
 2264 0000 30B5     		push	{r4, r5, lr}
 2265              	.LCFI39:
 2266              		.cfi_def_cfa_offset 12
 2267              		.cfi_offset 4, -12
 2268              		.cfi_offset 5, -8
 2269              		.cfi_offset 14, -4
 2270 0002 87B0     		sub	sp, sp, #28
 2271              	.LCFI40:
 2272              		.cfi_def_cfa_offset 40
 2273 0004 0446     		mov	r4, r0
 2274 0006 0D46     		mov	r5, r1
 496:Src/pb_encode.c ****     if (!pb_field_iter_begin(&iter, fields, pb_const_cast(src_struct)))
 2275              		.loc 1 496 5 is_stmt 1 view .LVU640
 497:Src/pb_encode.c ****         return true; /* Empty message type */
 2276              		.loc 1 497 5 view .LVU641
 497:Src/pb_encode.c ****         return true; /* Empty message type */
 2277              		.loc 1 497 10 is_stmt 0 view .LVU642
 2278 0008 1046     		mov	r0, r2
 2279              	.LVL229:
 497:Src/pb_encode.c ****         return true; /* Empty message type */
 2280              		.loc 1 497 10 view .LVU643
 2281 000a FFF7FEFF 		bl	pb_const_cast
 2282              	.LVL230:
 497:Src/pb_encode.c ****         return true; /* Empty message type */
ARM GAS  C:\Users\grgcz\AppData\Local\Temp\ccHl8fYU.s 			page 64


 2283              		.loc 1 497 10 view .LVU644
 2284 000e 0246     		mov	r2, r0
 2285 0010 2946     		mov	r1, r5
 2286 0012 6846     		mov	r0, sp
 2287 0014 FFF7FEFF 		bl	pb_field_iter_begin
 2288              	.LVL231:
 497:Src/pb_encode.c ****         return true; /* Empty message type */
 2289              		.loc 1 497 8 view .LVU645
 2290 0018 0546     		mov	r5, r0
 2291              	.LVL232:
 497:Src/pb_encode.c ****         return true; /* Empty message type */
 2292              		.loc 1 497 8 view .LVU646
 2293 001a 68B9     		cbnz	r0, .L233
 498:Src/pb_encode.c ****     
 2294              		.loc 1 498 16 view .LVU647
 2295 001c 0125     		movs	r5, #1
 2296              	.L230:
 516:Src/pb_encode.c **** 
 2297              		.loc 1 516 1 view .LVU648
 2298 001e 2846     		mov	r0, r5
 2299 0020 07B0     		add	sp, sp, #28
 2300              	.LCFI41:
 2301              		.cfi_remember_state
 2302              		.cfi_def_cfa_offset 12
 2303              		@ sp needed
 2304 0022 30BD     		pop	{r4, r5, pc}
 2305              	.LVL233:
 2306              	.L238:
 2307              	.LCFI42:
 2308              		.cfi_restore_state
 504:Src/pb_encode.c ****                 return false;
 2309              		.loc 1 504 13 is_stmt 1 view .LVU649
 504:Src/pb_encode.c ****                 return false;
 2310              		.loc 1 504 18 is_stmt 0 view .LVU650
 2311 0024 049A     		ldr	r2, [sp, #16]
 2312 0026 2046     		mov	r0, r4
 2313 0028 FFF7FEFF 		bl	encode_extension_field
 2314              	.LVL234:
 504:Src/pb_encode.c ****                 return false;
 2315              		.loc 1 504 16 view .LVU651
 2316 002c 90B1     		cbz	r0, .L237
 2317              	.L232:
 513:Src/pb_encode.c ****     
 2318              		.loc 1 513 14 view .LVU652
 2319 002e 6846     		mov	r0, sp
 2320 0030 FFF7FEFF 		bl	pb_field_iter_next
 2321              	.LVL235:
 513:Src/pb_encode.c ****     
 2322              		.loc 1 513 5 view .LVU653
 2323 0034 0028     		cmp	r0, #0
 2324 0036 F2D0     		beq	.L230
 2325              	.L233:
 500:Src/pb_encode.c ****         if (PB_LTYPE(iter.pos->type) == PB_LTYPE_EXTENSION)
 2326              		.loc 1 500 5 is_stmt 1 view .LVU654
 501:Src/pb_encode.c ****         {
 2327              		.loc 1 501 9 view .LVU655
 501:Src/pb_encode.c ****         {
ARM GAS  C:\Users\grgcz\AppData\Local\Temp\ccHl8fYU.s 			page 65


 2328              		.loc 1 501 13 is_stmt 0 view .LVU656
 2329 0038 0199     		ldr	r1, [sp, #4]
 2330 003a 8B78     		ldrb	r3, [r1, #2]	@ zero_extendqisi2
 501:Src/pb_encode.c ****         {
 2331              		.loc 1 501 12 view .LVU657
 2332 003c 03F00F03 		and	r3, r3, #15
 2333 0040 082B     		cmp	r3, #8
 2334 0042 EFD0     		beq	.L238
 510:Src/pb_encode.c ****                 return false;
 2335              		.loc 1 510 13 is_stmt 1 view .LVU658
 510:Src/pb_encode.c ****                 return false;
 2336              		.loc 1 510 18 is_stmt 0 view .LVU659
 2337 0044 049A     		ldr	r2, [sp, #16]
 2338 0046 2046     		mov	r0, r4
 2339 0048 FFF7FEFF 		bl	encode_field
 2340              	.LVL236:
 510:Src/pb_encode.c ****                 return false;
 2341              		.loc 1 510 16 view .LVU660
 2342 004c 0028     		cmp	r0, #0
 2343 004e EED1     		bne	.L232
 511:Src/pb_encode.c ****         }
 2344              		.loc 1 511 24 view .LVU661
 2345 0050 0546     		mov	r5, r0
 2346 0052 E4E7     		b	.L230
 2347              	.L237:
 505:Src/pb_encode.c ****         }
 2348              		.loc 1 505 24 view .LVU662
 2349 0054 0546     		mov	r5, r0
 2350 0056 E2E7     		b	.L230
 2351              		.cfi_endproc
 2352              	.LFE11:
 2354              		.section	.text.pb_encode_nullterminated,"ax",%progbits
 2355              		.align	1
 2356              		.global	pb_encode_nullterminated
 2357              		.syntax unified
 2358              		.thumb
 2359              		.thumb_func
 2360              		.fpu fpv4-sp-d16
 2362              	pb_encode_nullterminated:
 2363              	.LVL237:
 2364              	.LFB13:
 524:Src/pb_encode.c ****     const pb_byte_t zero = 0;
 2365              		.loc 1 524 1 is_stmt 1 view -0
 2366              		.cfi_startproc
 2367              		@ args = 0, pretend = 0, frame = 8
 2368              		@ frame_needed = 0, uses_anonymous_args = 0
 524:Src/pb_encode.c ****     const pb_byte_t zero = 0;
 2369              		.loc 1 524 1 is_stmt 0 view .LVU664
 2370 0000 10B5     		push	{r4, lr}
 2371              	.LCFI43:
 2372              		.cfi_def_cfa_offset 8
 2373              		.cfi_offset 4, -8
 2374              		.cfi_offset 14, -4
 2375 0002 82B0     		sub	sp, sp, #8
 2376              	.LCFI44:
 2377              		.cfi_def_cfa_offset 16
 2378 0004 0446     		mov	r4, r0
ARM GAS  C:\Users\grgcz\AppData\Local\Temp\ccHl8fYU.s 			page 66


 525:Src/pb_encode.c **** 
 2379              		.loc 1 525 5 is_stmt 1 view .LVU665
 525:Src/pb_encode.c **** 
 2380              		.loc 1 525 21 is_stmt 0 view .LVU666
 2381 0006 0023     		movs	r3, #0
 2382 0008 8DF80730 		strb	r3, [sp, #7]
 527:Src/pb_encode.c ****         return false;
 2383              		.loc 1 527 5 is_stmt 1 view .LVU667
 527:Src/pb_encode.c ****         return false;
 2384              		.loc 1 527 10 is_stmt 0 view .LVU668
 2385 000c FFF7FEFF 		bl	pb_encode
 2386              	.LVL238:
 527:Src/pb_encode.c ****         return false;
 2387              		.loc 1 527 8 view .LVU669
 2388 0010 0346     		mov	r3, r0
 2389 0012 10B9     		cbnz	r0, .L242
 2390              	.L240:
 531:Src/pb_encode.c **** 
 2391              		.loc 1 531 1 view .LVU670
 2392 0014 1846     		mov	r0, r3
 2393 0016 02B0     		add	sp, sp, #8
 2394              	.LCFI45:
 2395              		.cfi_remember_state
 2396              		.cfi_def_cfa_offset 8
 2397              		@ sp needed
 2398 0018 10BD     		pop	{r4, pc}
 2399              	.LVL239:
 2400              	.L242:
 2401              	.LCFI46:
 2402              		.cfi_restore_state
 530:Src/pb_encode.c **** }
 2403              		.loc 1 530 5 is_stmt 1 view .LVU671
 530:Src/pb_encode.c **** }
 2404              		.loc 1 530 12 is_stmt 0 view .LVU672
 2405 001a 0122     		movs	r2, #1
 2406 001c 0DF10701 		add	r1, sp, #7
 2407 0020 2046     		mov	r0, r4
 2408 0022 FFF7FEFF 		bl	pb_write
 2409              	.LVL240:
 2410 0026 0346     		mov	r3, r0
 2411 0028 F4E7     		b	.L240
 2412              		.cfi_endproc
 2413              	.LFE13:
 2415              		.section	.text.pb_get_encoded_size,"ax",%progbits
 2416              		.align	1
 2417              		.global	pb_get_encoded_size
 2418              		.syntax unified
 2419              		.thumb
 2420              		.thumb_func
 2421              		.fpu fpv4-sp-d16
 2423              	pb_get_encoded_size:
 2424              	.LVL241:
 2425              	.LFB14:
 534:Src/pb_encode.c ****     pb_ostream_t stream = PB_OSTREAM_SIZING;
 2426              		.loc 1 534 1 is_stmt 1 view -0
 2427              		.cfi_startproc
 2428              		@ args = 0, pretend = 0, frame = 24
ARM GAS  C:\Users\grgcz\AppData\Local\Temp\ccHl8fYU.s 			page 67


 2429              		@ frame_needed = 0, uses_anonymous_args = 0
 534:Src/pb_encode.c ****     pb_ostream_t stream = PB_OSTREAM_SIZING;
 2430              		.loc 1 534 1 is_stmt 0 view .LVU674
 2431 0000 10B5     		push	{r4, lr}
 2432              	.LCFI47:
 2433              		.cfi_def_cfa_offset 8
 2434              		.cfi_offset 4, -8
 2435              		.cfi_offset 14, -4
 2436 0002 86B0     		sub	sp, sp, #24
 2437              	.LCFI48:
 2438              		.cfi_def_cfa_offset 32
 2439 0004 0446     		mov	r4, r0
 535:Src/pb_encode.c ****     
 2440              		.loc 1 535 5 is_stmt 1 view .LVU675
 535:Src/pb_encode.c ****     
 2441              		.loc 1 535 18 is_stmt 0 view .LVU676
 2442 0006 0023     		movs	r3, #0
 2443 0008 0193     		str	r3, [sp, #4]
 2444 000a 0293     		str	r3, [sp, #8]
 2445 000c 0393     		str	r3, [sp, #12]
 2446 000e 0493     		str	r3, [sp, #16]
 2447 0010 0593     		str	r3, [sp, #20]
 537:Src/pb_encode.c ****         return false;
 2448              		.loc 1 537 5 is_stmt 1 view .LVU677
 537:Src/pb_encode.c ****         return false;
 2449              		.loc 1 537 10 is_stmt 0 view .LVU678
 2450 0012 01A8     		add	r0, sp, #4
 2451              	.LVL242:
 537:Src/pb_encode.c ****         return false;
 2452              		.loc 1 537 10 view .LVU679
 2453 0014 FFF7FEFF 		bl	pb_encode
 2454              	.LVL243:
 537:Src/pb_encode.c ****         return false;
 2455              		.loc 1 537 8 view .LVU680
 2456 0018 0346     		mov	r3, r0
 2457 001a 08B1     		cbz	r0, .L244
 540:Src/pb_encode.c ****     return true;
 2458              		.loc 1 540 5 is_stmt 1 view .LVU681
 540:Src/pb_encode.c ****     return true;
 2459              		.loc 1 540 19 is_stmt 0 view .LVU682
 2460 001c 049A     		ldr	r2, [sp, #16]
 540:Src/pb_encode.c ****     return true;
 2461              		.loc 1 540 11 view .LVU683
 2462 001e 2260     		str	r2, [r4]
 541:Src/pb_encode.c **** }
 2463              		.loc 1 541 5 is_stmt 1 view .LVU684
 2464              	.L244:
 542:Src/pb_encode.c **** 
 2465              		.loc 1 542 1 is_stmt 0 view .LVU685
 2466 0020 1846     		mov	r0, r3
 2467 0022 06B0     		add	sp, sp, #24
 2468              	.LCFI49:
 2469              		.cfi_def_cfa_offset 8
 2470              		@ sp needed
 2471 0024 10BD     		pop	{r4, pc}
 542:Src/pb_encode.c **** 
 2472              		.loc 1 542 1 view .LVU686
ARM GAS  C:\Users\grgcz\AppData\Local\Temp\ccHl8fYU.s 			page 68


 2473              		.cfi_endproc
 2474              	.LFE14:
 2476              		.section	.text.pb_encode_string,"ax",%progbits
 2477              		.align	1
 2478              		.global	pb_encode_string
 2479              		.syntax unified
 2480              		.thumb
 2481              		.thumb_func
 2482              		.fpu fpv4-sp-d16
 2484              	pb_encode_string:
 2485              	.LVL244:
 2486              	.LFB21:
 675:Src/pb_encode.c ****     if (!pb_encode_varint(stream, (pb_uint64_t)size))
 2487              		.loc 1 675 1 is_stmt 1 view -0
 2488              		.cfi_startproc
 2489              		@ args = 0, pretend = 0, frame = 0
 2490              		@ frame_needed = 0, uses_anonymous_args = 0
 675:Src/pb_encode.c ****     if (!pb_encode_varint(stream, (pb_uint64_t)size))
 2491              		.loc 1 675 1 is_stmt 0 view .LVU688
 2492 0000 70B5     		push	{r4, r5, r6, lr}
 2493              	.LCFI50:
 2494              		.cfi_def_cfa_offset 16
 2495              		.cfi_offset 4, -16
 2496              		.cfi_offset 5, -12
 2497              		.cfi_offset 6, -8
 2498              		.cfi_offset 14, -4
 2499 0002 0446     		mov	r4, r0
 2500 0004 0D46     		mov	r5, r1
 2501 0006 1646     		mov	r6, r2
 676:Src/pb_encode.c ****         return false;
 2502              		.loc 1 676 5 is_stmt 1 view .LVU689
 676:Src/pb_encode.c ****         return false;
 2503              		.loc 1 676 10 is_stmt 0 view .LVU690
 2504 0008 0023     		movs	r3, #0
 2505 000a FFF7FEFF 		bl	pb_encode_varint
 2506              	.LVL245:
 676:Src/pb_encode.c ****         return false;
 2507              		.loc 1 676 8 view .LVU691
 2508 000e 0346     		mov	r3, r0
 2509 0010 08B9     		cbnz	r0, .L249
 2510              	.L247:
 680:Src/pb_encode.c **** 
 2511              		.loc 1 680 1 view .LVU692
 2512 0012 1846     		mov	r0, r3
 2513 0014 70BD     		pop	{r4, r5, r6, pc}
 2514              	.LVL246:
 2515              	.L249:
 679:Src/pb_encode.c **** }
 2516              		.loc 1 679 5 is_stmt 1 view .LVU693
 679:Src/pb_encode.c **** }
 2517              		.loc 1 679 12 is_stmt 0 view .LVU694
 2518 0016 3246     		mov	r2, r6
 2519 0018 2946     		mov	r1, r5
 2520 001a 2046     		mov	r0, r4
 2521 001c FFF7FEFF 		bl	pb_write
 2522              	.LVL247:
 2523 0020 0346     		mov	r3, r0
ARM GAS  C:\Users\grgcz\AppData\Local\Temp\ccHl8fYU.s 			page 69


 2524 0022 F6E7     		b	.L247
 2525              		.cfi_endproc
 2526              	.LFE21:
 2528              		.section	.text.pb_enc_fixed_length_bytes,"ax",%progbits
 2529              		.align	1
 2530              		.syntax unified
 2531              		.thumb
 2532              		.thumb_func
 2533              		.fpu fpv4-sp-d16
 2535              	pb_enc_fixed_length_bytes:
 2536              	.LVL248:
 2537              	.LFB31:
 809:Src/pb_encode.c **** 
 810:Src/pb_encode.c **** static bool checkreturn pb_enc_bytes(pb_ostream_t *stream, const pb_field_t *field, const void *src
 811:Src/pb_encode.c **** {
 812:Src/pb_encode.c ****     const pb_bytes_array_t *bytes = NULL;
 813:Src/pb_encode.c **** 
 814:Src/pb_encode.c ****     bytes = (const pb_bytes_array_t*)src;
 815:Src/pb_encode.c ****     
 816:Src/pb_encode.c ****     if (src == NULL)
 817:Src/pb_encode.c ****     {
 818:Src/pb_encode.c ****         /* Treat null pointer as an empty bytes field */
 819:Src/pb_encode.c ****         return pb_encode_string(stream, NULL, 0);
 820:Src/pb_encode.c ****     }
 821:Src/pb_encode.c ****     
 822:Src/pb_encode.c ****     if (PB_ATYPE(field->type) == PB_ATYPE_STATIC &&
 823:Src/pb_encode.c ****         PB_BYTES_ARRAY_T_ALLOCSIZE(bytes->size) > field->data_size)
 824:Src/pb_encode.c ****     {
 825:Src/pb_encode.c ****         PB_RETURN_ERROR(stream, "bytes size exceeded");
 826:Src/pb_encode.c ****     }
 827:Src/pb_encode.c ****     
 828:Src/pb_encode.c ****     return pb_encode_string(stream, bytes->bytes, bytes->size);
 829:Src/pb_encode.c **** }
 830:Src/pb_encode.c **** 
 831:Src/pb_encode.c **** static bool checkreturn pb_enc_string(pb_ostream_t *stream, const pb_field_t *field, const void *sr
 832:Src/pb_encode.c **** {
 833:Src/pb_encode.c ****     size_t size = 0;
 834:Src/pb_encode.c ****     size_t max_size = field->data_size;
 835:Src/pb_encode.c ****     const char *p = (const char*)src;
 836:Src/pb_encode.c ****     
 837:Src/pb_encode.c ****     if (PB_ATYPE(field->type) == PB_ATYPE_POINTER)
 838:Src/pb_encode.c ****         max_size = (size_t)-1;
 839:Src/pb_encode.c **** 
 840:Src/pb_encode.c ****     if (src == NULL)
 841:Src/pb_encode.c ****     {
 842:Src/pb_encode.c ****         size = 0; /* Treat null pointer as an empty string */
 843:Src/pb_encode.c ****     }
 844:Src/pb_encode.c ****     else
 845:Src/pb_encode.c ****     {
 846:Src/pb_encode.c ****         /* strnlen() is not always available, so just use a loop */
 847:Src/pb_encode.c ****         while (size < max_size && *p != '\0')
 848:Src/pb_encode.c ****         {
 849:Src/pb_encode.c ****             size++;
 850:Src/pb_encode.c ****             p++;
 851:Src/pb_encode.c ****         }
 852:Src/pb_encode.c ****     }
 853:Src/pb_encode.c **** 
ARM GAS  C:\Users\grgcz\AppData\Local\Temp\ccHl8fYU.s 			page 70


 854:Src/pb_encode.c ****     return pb_encode_string(stream, (const pb_byte_t*)src, size);
 855:Src/pb_encode.c **** }
 856:Src/pb_encode.c **** 
 857:Src/pb_encode.c **** static bool checkreturn pb_enc_submessage(pb_ostream_t *stream, const pb_field_t *field, const void
 858:Src/pb_encode.c **** {
 859:Src/pb_encode.c ****     if (field->ptr == NULL)
 860:Src/pb_encode.c ****         PB_RETURN_ERROR(stream, "invalid field descriptor");
 861:Src/pb_encode.c ****     
 862:Src/pb_encode.c ****     return pb_encode_submessage(stream, (const pb_field_t*)field->ptr, src);
 863:Src/pb_encode.c **** }
 864:Src/pb_encode.c **** 
 865:Src/pb_encode.c **** static bool checkreturn pb_enc_fixed_length_bytes(pb_ostream_t *stream, const pb_field_t *field, co
 866:Src/pb_encode.c **** {
 2538              		.loc 1 866 1 is_stmt 1 view -0
 2539              		.cfi_startproc
 2540              		@ args = 0, pretend = 0, frame = 0
 2541              		@ frame_needed = 0, uses_anonymous_args = 0
 2542              		.loc 1 866 1 is_stmt 0 view .LVU696
 2543 0000 08B5     		push	{r3, lr}
 2544              	.LCFI51:
 2545              		.cfi_def_cfa_offset 8
 2546              		.cfi_offset 3, -8
 2547              		.cfi_offset 14, -4
 2548 0002 1346     		mov	r3, r2
 867:Src/pb_encode.c ****     return pb_encode_string(stream, (const pb_byte_t*)src, field->data_size);
 2549              		.loc 1 867 5 is_stmt 1 view .LVU697
 2550              		.loc 1 867 12 is_stmt 0 view .LVU698
 2551 0004 B1F80720 		ldrh	r2, [r1, #7]	@ unaligned
 2552              	.LVL249:
 2553              		.loc 1 867 12 view .LVU699
 2554 0008 1946     		mov	r1, r3
 2555              	.LVL250:
 2556              		.loc 1 867 12 view .LVU700
 2557 000a FFF7FEFF 		bl	pb_encode_string
 2558              	.LVL251:
 868:Src/pb_encode.c **** }
 2559              		.loc 1 868 1 view .LVU701
 2560 000e 08BD     		pop	{r3, pc}
 2561              		.cfi_endproc
 2562              	.LFE31:
 2564              		.section	.text.pb_enc_string,"ax",%progbits
 2565              		.align	1
 2566              		.syntax unified
 2567              		.thumb
 2568              		.thumb_func
 2569              		.fpu fpv4-sp-d16
 2571              	pb_enc_string:
 2572              	.LVL252:
 2573              	.LFB29:
 832:Src/pb_encode.c ****     size_t size = 0;
 2574              		.loc 1 832 1 is_stmt 1 view -0
 2575              		.cfi_startproc
 2576              		@ args = 0, pretend = 0, frame = 0
 2577              		@ frame_needed = 0, uses_anonymous_args = 0
 832:Src/pb_encode.c ****     size_t size = 0;
 2578              		.loc 1 832 1 is_stmt 0 view .LVU703
 2579 0000 38B5     		push	{r3, r4, r5, lr}
ARM GAS  C:\Users\grgcz\AppData\Local\Temp\ccHl8fYU.s 			page 71


 2580              	.LCFI52:
 2581              		.cfi_def_cfa_offset 16
 2582              		.cfi_offset 3, -16
 2583              		.cfi_offset 4, -12
 2584              		.cfi_offset 5, -8
 2585              		.cfi_offset 14, -4
 2586 0002 0B46     		mov	r3, r1
 2587 0004 1146     		mov	r1, r2
 2588              	.LVL253:
 833:Src/pb_encode.c ****     size_t max_size = field->data_size;
 2589              		.loc 1 833 5 is_stmt 1 view .LVU704
 834:Src/pb_encode.c ****     const char *p = (const char*)src;
 2590              		.loc 1 834 5 view .LVU705
 834:Src/pb_encode.c ****     const char *p = (const char*)src;
 2591              		.loc 1 834 28 is_stmt 0 view .LVU706
 2592 0006 B3F80750 		ldrh	r5, [r3, #7]	@ unaligned
 2593              	.LVL254:
 835:Src/pb_encode.c ****     
 2594              		.loc 1 835 5 is_stmt 1 view .LVU707
 837:Src/pb_encode.c ****         max_size = (size_t)-1;
 2595              		.loc 1 837 5 view .LVU708
 837:Src/pb_encode.c ****         max_size = (size_t)-1;
 2596              		.loc 1 837 9 is_stmt 0 view .LVU709
 2597 000a 9B78     		ldrb	r3, [r3, #2]	@ zero_extendqisi2
 2598              	.LVL255:
 837:Src/pb_encode.c ****         max_size = (size_t)-1;
 2599              		.loc 1 837 8 view .LVU710
 2600 000c 03F0C003 		and	r3, r3, #192
 2601 0010 802B     		cmp	r3, #128
 2602 0012 03D0     		beq	.L260
 2603              	.LVL256:
 2604              	.L253:
 840:Src/pb_encode.c ****     {
 2605              		.loc 1 840 5 is_stmt 1 view .LVU711
 840:Src/pb_encode.c ****     {
 2606              		.loc 1 840 8 is_stmt 0 view .LVU712
 2607 0014 79B1     		cbz	r1, .L258
 835:Src/pb_encode.c ****     
 2608              		.loc 1 835 17 view .LVU713
 2609 0016 0B46     		mov	r3, r1
 833:Src/pb_encode.c ****     size_t max_size = field->data_size;
 2610              		.loc 1 833 12 view .LVU714
 2611 0018 0022     		movs	r2, #0
 2612              	.LVL257:
 833:Src/pb_encode.c ****     size_t max_size = field->data_size;
 2613              		.loc 1 833 12 view .LVU715
 2614 001a 04E0     		b	.L255
 2615              	.L260:
 838:Src/pb_encode.c **** 
 2616              		.loc 1 838 18 view .LVU716
 2617 001c 4FF0FF35 		mov	r5, #-1
 2618              	.LVL258:
 838:Src/pb_encode.c **** 
 2619              		.loc 1 838 18 view .LVU717
 2620 0020 F8E7     		b	.L253
 2621              	.LVL259:
 2622              	.L256:
ARM GAS  C:\Users\grgcz\AppData\Local\Temp\ccHl8fYU.s 			page 72


 849:Src/pb_encode.c ****             p++;
 2623              		.loc 1 849 13 is_stmt 1 view .LVU718
 849:Src/pb_encode.c ****             p++;
 2624              		.loc 1 849 17 is_stmt 0 view .LVU719
 2625 0022 0132     		adds	r2, r2, #1
 2626              	.LVL260:
 850:Src/pb_encode.c ****         }
 2627              		.loc 1 850 13 is_stmt 1 view .LVU720
 850:Src/pb_encode.c ****         }
 2628              		.loc 1 850 14 is_stmt 0 view .LVU721
 2629 0024 0133     		adds	r3, r3, #1
 2630              	.LVL261:
 2631              	.L255:
 847:Src/pb_encode.c ****         {
 2632              		.loc 1 847 15 view .LVU722
 2633 0026 AA42     		cmp	r2, r5
 2634 0028 02D2     		bcs	.L254
 847:Src/pb_encode.c ****         {
 2635              		.loc 1 847 35 discriminator 1 view .LVU723
 2636 002a 1C78     		ldrb	r4, [r3]	@ zero_extendqisi2
 847:Src/pb_encode.c ****         {
 2637              		.loc 1 847 32 discriminator 1 view .LVU724
 2638 002c 002C     		cmp	r4, #0
 2639 002e F8D1     		bne	.L256
 2640              	.LVL262:
 2641              	.L254:
 854:Src/pb_encode.c **** }
 2642              		.loc 1 854 5 is_stmt 1 view .LVU725
 854:Src/pb_encode.c **** }
 2643              		.loc 1 854 12 is_stmt 0 view .LVU726
 2644 0030 FFF7FEFF 		bl	pb_encode_string
 2645              	.LVL263:
 855:Src/pb_encode.c **** 
 2646              		.loc 1 855 1 view .LVU727
 2647 0034 38BD     		pop	{r3, r4, r5, pc}
 2648              	.LVL264:
 2649              	.L258:
 842:Src/pb_encode.c ****     }
 2650              		.loc 1 842 14 view .LVU728
 2651 0036 0022     		movs	r2, #0
 2652 0038 FAE7     		b	.L254
 2653              		.cfi_endproc
 2654              	.LFE29:
 2656              		.section	.text.pb_enc_bytes,"ax",%progbits
 2657              		.align	1
 2658              		.syntax unified
 2659              		.thumb
 2660              		.thumb_func
 2661              		.fpu fpv4-sp-d16
 2663              	pb_enc_bytes:
 2664              	.LVL265:
 2665              	.LFB28:
 811:Src/pb_encode.c ****     const pb_bytes_array_t *bytes = NULL;
 2666              		.loc 1 811 1 is_stmt 1 view -0
 2667              		.cfi_startproc
 2668              		@ args = 0, pretend = 0, frame = 0
 2669              		@ frame_needed = 0, uses_anonymous_args = 0
ARM GAS  C:\Users\grgcz\AppData\Local\Temp\ccHl8fYU.s 			page 73


 811:Src/pb_encode.c ****     const pb_bytes_array_t *bytes = NULL;
 2670              		.loc 1 811 1 is_stmt 0 view .LVU730
 2671 0000 08B5     		push	{r3, lr}
 2672              	.LCFI53:
 2673              		.cfi_def_cfa_offset 8
 2674              		.cfi_offset 3, -8
 2675              		.cfi_offset 14, -4
 812:Src/pb_encode.c **** 
 2676              		.loc 1 812 5 is_stmt 1 view .LVU731
 2677              	.LVL266:
 814:Src/pb_encode.c ****     
 2678              		.loc 1 814 5 view .LVU732
 816:Src/pb_encode.c ****     {
 2679              		.loc 1 816 5 view .LVU733
 816:Src/pb_encode.c ****     {
 2680              		.loc 1 816 8 is_stmt 0 view .LVU734
 2681 0002 82B1     		cbz	r2, .L267
 2682 0004 1346     		mov	r3, r2
 822:Src/pb_encode.c ****         PB_BYTES_ARRAY_T_ALLOCSIZE(bytes->size) > field->data_size)
 2683              		.loc 1 822 5 is_stmt 1 view .LVU735
 822:Src/pb_encode.c ****         PB_BYTES_ARRAY_T_ALLOCSIZE(bytes->size) > field->data_size)
 2684              		.loc 1 822 9 is_stmt 0 view .LVU736
 2685 0006 8A78     		ldrb	r2, [r1, #2]	@ zero_extendqisi2
 2686              	.LVL267:
 822:Src/pb_encode.c ****         PB_BYTES_ARRAY_T_ALLOCSIZE(bytes->size) > field->data_size)
 2687              		.loc 1 822 8 view .LVU737
 2688 0008 12F0C00F 		tst	r2, #192
 2689 000c 05D1     		bne	.L264
 823:Src/pb_encode.c ****     {
 2690              		.loc 1 823 9 discriminator 1 view .LVU738
 2691 000e 1A88     		ldrh	r2, [r3]
 2692 0010 0232     		adds	r2, r2, #2
 823:Src/pb_encode.c ****     {
 2693              		.loc 1 823 56 discriminator 1 view .LVU739
 2694 0012 B1F80710 		ldrh	r1, [r1, #7]	@ unaligned
 2695              	.LVL268:
 822:Src/pb_encode.c ****         PB_BYTES_ARRAY_T_ALLOCSIZE(bytes->size) > field->data_size)
 2696              		.loc 1 822 50 discriminator 1 view .LVU740
 2697 0016 8A42     		cmp	r2, r1
 2698 0018 09D8     		bhi	.L268
 2699              	.L264:
 828:Src/pb_encode.c **** }
 2700              		.loc 1 828 5 is_stmt 1 view .LVU741
 828:Src/pb_encode.c **** }
 2701              		.loc 1 828 42 is_stmt 0 view .LVU742
 2702 001a 1946     		mov	r1, r3
 828:Src/pb_encode.c **** }
 2703              		.loc 1 828 12 view .LVU743
 2704 001c 31F8022B 		ldrh	r2, [r1], #2
 2705 0020 FFF7FEFF 		bl	pb_encode_string
 2706              	.LVL269:
 2707              	.L263:
 829:Src/pb_encode.c **** 
 2708              		.loc 1 829 1 view .LVU744
 2709 0024 08BD     		pop	{r3, pc}
 2710              	.LVL270:
 2711              	.L267:
ARM GAS  C:\Users\grgcz\AppData\Local\Temp\ccHl8fYU.s 			page 74


 819:Src/pb_encode.c ****     }
 2712              		.loc 1 819 9 is_stmt 1 view .LVU745
 819:Src/pb_encode.c ****     }
 2713              		.loc 1 819 16 is_stmt 0 view .LVU746
 2714 0026 1146     		mov	r1, r2
 2715              	.LVL271:
 819:Src/pb_encode.c ****     }
 2716              		.loc 1 819 16 view .LVU747
 2717 0028 FFF7FEFF 		bl	pb_encode_string
 2718              	.LVL272:
 819:Src/pb_encode.c ****     }
 2719              		.loc 1 819 16 view .LVU748
 2720 002c FAE7     		b	.L263
 2721              	.LVL273:
 2722              	.L268:
 825:Src/pb_encode.c ****     }
 2723              		.loc 1 825 9 is_stmt 1 view .LVU749
 2724 002e 0369     		ldr	r3, [r0, #16]
 2725              	.LVL274:
 825:Src/pb_encode.c ****     }
 2726              		.loc 1 825 9 is_stmt 0 view .LVU750
 2727 0030 13B1     		cbz	r3, .L269
 2728              	.L265:
 825:Src/pb_encode.c ****     }
 2729              		.loc 1 825 9 discriminator 4 view .LVU751
 2730 0032 0361     		str	r3, [r0, #16]
 2731 0034 0020     		movs	r0, #0
 2732              	.LVL275:
 825:Src/pb_encode.c ****     }
 2733              		.loc 1 825 9 discriminator 4 view .LVU752
 2734 0036 F5E7     		b	.L263
 2735              	.LVL276:
 2736              	.L269:
 825:Src/pb_encode.c ****     }
 2737              		.loc 1 825 9 view .LVU753
 2738 0038 004B     		ldr	r3, .L270
 2739 003a FAE7     		b	.L265
 2740              	.L271:
 2741              		.align	2
 2742              	.L270:
 2743 003c 00000000 		.word	.LC7
 2744              		.cfi_endproc
 2745              	.LFE28:
 2747              		.section	.text.pb_encode_submessage,"ax",%progbits
 2748              		.align	1
 2749              		.global	pb_encode_submessage
 2750              		.syntax unified
 2751              		.thumb
 2752              		.thumb_func
 2753              		.fpu fpv4-sp-d16
 2755              	pb_encode_submessage:
 2756              	.LVL277:
 2757              	.LFB22:
 683:Src/pb_encode.c ****     /* First calculate the message size using a non-writing substream. */
 2758              		.loc 1 683 1 is_stmt 1 view -0
 2759              		.cfi_startproc
 2760              		@ args = 0, pretend = 0, frame = 24
ARM GAS  C:\Users\grgcz\AppData\Local\Temp\ccHl8fYU.s 			page 75


 2761              		@ frame_needed = 0, uses_anonymous_args = 0
 683:Src/pb_encode.c ****     /* First calculate the message size using a non-writing substream. */
 2762              		.loc 1 683 1 is_stmt 0 view .LVU755
 2763 0000 F0B5     		push	{r4, r5, r6, r7, lr}
 2764              	.LCFI54:
 2765              		.cfi_def_cfa_offset 20
 2766              		.cfi_offset 4, -20
 2767              		.cfi_offset 5, -16
 2768              		.cfi_offset 6, -12
 2769              		.cfi_offset 7, -8
 2770              		.cfi_offset 14, -4
 2771 0002 87B0     		sub	sp, sp, #28
 2772              	.LCFI55:
 2773              		.cfi_def_cfa_offset 48
 2774 0004 0446     		mov	r4, r0
 2775 0006 0E46     		mov	r6, r1
 2776 0008 1746     		mov	r7, r2
 685:Src/pb_encode.c ****     size_t size;
 2777              		.loc 1 685 5 is_stmt 1 view .LVU756
 685:Src/pb_encode.c ****     size_t size;
 2778              		.loc 1 685 18 is_stmt 0 view .LVU757
 2779 000a 0023     		movs	r3, #0
 2780 000c 0193     		str	r3, [sp, #4]
 2781 000e 0293     		str	r3, [sp, #8]
 2782 0010 0393     		str	r3, [sp, #12]
 2783 0012 0493     		str	r3, [sp, #16]
 2784 0014 0593     		str	r3, [sp, #20]
 686:Src/pb_encode.c ****     bool status;
 2785              		.loc 1 686 5 is_stmt 1 view .LVU758
 687:Src/pb_encode.c ****     
 2786              		.loc 1 687 5 view .LVU759
 689:Src/pb_encode.c ****     {
 2787              		.loc 1 689 5 view .LVU760
 689:Src/pb_encode.c ****     {
 2788              		.loc 1 689 10 is_stmt 0 view .LVU761
 2789 0016 01A8     		add	r0, sp, #4
 2790              	.LVL278:
 689:Src/pb_encode.c ****     {
 2791              		.loc 1 689 10 view .LVU762
 2792 0018 FFF7FEFF 		bl	pb_encode
 2793              	.LVL279:
 689:Src/pb_encode.c ****     {
 2794              		.loc 1 689 8 view .LVU763
 2795 001c 28B9     		cbnz	r0, .L273
 2796 001e 0346     		mov	r3, r0
 692:Src/pb_encode.c **** #endif
 2797              		.loc 1 692 9 is_stmt 1 view .LVU764
 692:Src/pb_encode.c **** #endif
 2798              		.loc 1 692 35 is_stmt 0 view .LVU765
 2799 0020 059A     		ldr	r2, [sp, #20]
 692:Src/pb_encode.c **** #endif
 2800              		.loc 1 692 24 view .LVU766
 2801 0022 2261     		str	r2, [r4, #16]
 694:Src/pb_encode.c ****     }
 2802              		.loc 1 694 9 is_stmt 1 view .LVU767
 2803              	.L274:
 730:Src/pb_encode.c **** 
ARM GAS  C:\Users\grgcz\AppData\Local\Temp\ccHl8fYU.s 			page 76


 2804              		.loc 1 730 1 is_stmt 0 view .LVU768
 2805 0024 1846     		mov	r0, r3
 2806 0026 07B0     		add	sp, sp, #28
 2807              	.LCFI56:
 2808              		.cfi_remember_state
 2809              		.cfi_def_cfa_offset 20
 2810              		@ sp needed
 2811 0028 F0BD     		pop	{r4, r5, r6, r7, pc}
 2812              	.LVL280:
 2813              	.L273:
 2814              	.LCFI57:
 2815              		.cfi_restore_state
 697:Src/pb_encode.c ****     
 2816              		.loc 1 697 5 is_stmt 1 view .LVU769
 697:Src/pb_encode.c ****     
 2817              		.loc 1 697 10 is_stmt 0 view .LVU770
 2818 002a 049D     		ldr	r5, [sp, #16]
 2819              	.LVL281:
 699:Src/pb_encode.c ****         return false;
 2820              		.loc 1 699 5 is_stmt 1 view .LVU771
 699:Src/pb_encode.c ****         return false;
 2821              		.loc 1 699 10 is_stmt 0 view .LVU772
 2822 002c 2A46     		mov	r2, r5
 2823 002e 0023     		movs	r3, #0
 2824 0030 2046     		mov	r0, r4
 2825 0032 FFF7FEFF 		bl	pb_encode_varint
 2826              	.LVL282:
 699:Src/pb_encode.c ****         return false;
 2827              		.loc 1 699 8 view .LVU773
 2828 0036 0346     		mov	r3, r0
 2829 0038 0028     		cmp	r0, #0
 2830 003a F3D0     		beq	.L274
 702:Src/pb_encode.c ****         return pb_write(stream, NULL, size); /* Just sizing */
 2831              		.loc 1 702 5 is_stmt 1 view .LVU774
 702:Src/pb_encode.c ****         return pb_write(stream, NULL, size); /* Just sizing */
 2832              		.loc 1 702 15 is_stmt 0 view .LVU775
 2833 003c 2268     		ldr	r2, [r4]
 702:Src/pb_encode.c ****         return pb_write(stream, NULL, size); /* Just sizing */
 2834              		.loc 1 702 8 view .LVU776
 2835 003e 4AB1     		cbz	r2, .L280
 705:Src/pb_encode.c ****         PB_RETURN_ERROR(stream, "stream full");
 2836              		.loc 1 705 5 is_stmt 1 view .LVU777
 705:Src/pb_encode.c ****         PB_RETURN_ERROR(stream, "stream full");
 2837              		.loc 1 705 15 is_stmt 0 view .LVU778
 2838 0040 E368     		ldr	r3, [r4, #12]
 705:Src/pb_encode.c ****         PB_RETURN_ERROR(stream, "stream full");
 2839              		.loc 1 705 31 view .LVU779
 2840 0042 2B44     		add	r3, r3, r5
 705:Src/pb_encode.c ****         PB_RETURN_ERROR(stream, "stream full");
 2841              		.loc 1 705 46 view .LVU780
 2842 0044 A168     		ldr	r1, [r4, #8]
 705:Src/pb_encode.c ****         PB_RETURN_ERROR(stream, "stream full");
 2843              		.loc 1 705 8 view .LVU781
 2844 0046 8B42     		cmp	r3, r1
 2845 0048 0DD9     		bls	.L276
 706:Src/pb_encode.c ****         
 2846              		.loc 1 706 9 is_stmt 1 view .LVU782
ARM GAS  C:\Users\grgcz\AppData\Local\Temp\ccHl8fYU.s 			page 77


 2847 004a 2369     		ldr	r3, [r4, #16]
 2848 004c 4BB1     		cbz	r3, .L281
 2849              	.L277:
 706:Src/pb_encode.c ****         
 2850              		.loc 1 706 9 is_stmt 0 discriminator 4 view .LVU783
 2851 004e 2361     		str	r3, [r4, #16]
 2852 0050 0023     		movs	r3, #0
 2853 0052 E7E7     		b	.L274
 2854              	.L280:
 703:Src/pb_encode.c ****     
 2855              		.loc 1 703 9 is_stmt 1 view .LVU784
 703:Src/pb_encode.c ****     
 2856              		.loc 1 703 16 is_stmt 0 view .LVU785
 2857 0054 2A46     		mov	r2, r5
 2858 0056 0021     		movs	r1, #0
 2859 0058 2046     		mov	r0, r4
 2860 005a FFF7FEFF 		bl	pb_write
 2861              	.LVL283:
 2862 005e 0346     		mov	r3, r0
 2863 0060 E0E7     		b	.L274
 2864              	.L281:
 706:Src/pb_encode.c ****         
 2865              		.loc 1 706 9 view .LVU786
 2866 0062 0F4B     		ldr	r3, .L283
 2867 0064 F3E7     		b	.L277
 2868              	.L276:
 710:Src/pb_encode.c ****     substream.state = stream->state;
 2869              		.loc 1 710 5 is_stmt 1 view .LVU787
 710:Src/pb_encode.c ****     substream.state = stream->state;
 2870              		.loc 1 710 24 is_stmt 0 view .LVU788
 2871 0066 0192     		str	r2, [sp, #4]
 711:Src/pb_encode.c ****     substream.max_size = size;
 2872              		.loc 1 711 5 is_stmt 1 view .LVU789
 711:Src/pb_encode.c ****     substream.max_size = size;
 2873              		.loc 1 711 29 is_stmt 0 view .LVU790
 2874 0068 6368     		ldr	r3, [r4, #4]
 711:Src/pb_encode.c ****     substream.max_size = size;
 2875              		.loc 1 711 21 view .LVU791
 2876 006a 0293     		str	r3, [sp, #8]
 712:Src/pb_encode.c ****     substream.bytes_written = 0;
 2877              		.loc 1 712 5 is_stmt 1 view .LVU792
 712:Src/pb_encode.c ****     substream.bytes_written = 0;
 2878              		.loc 1 712 24 is_stmt 0 view .LVU793
 2879 006c 0395     		str	r5, [sp, #12]
 713:Src/pb_encode.c **** #ifndef PB_NO_ERRMSG
 2880              		.loc 1 713 5 is_stmt 1 view .LVU794
 713:Src/pb_encode.c **** #ifndef PB_NO_ERRMSG
 2881              		.loc 1 713 29 is_stmt 0 view .LVU795
 2882 006e 0023     		movs	r3, #0
 2883 0070 0493     		str	r3, [sp, #16]
 715:Src/pb_encode.c **** #endif
 2884              		.loc 1 715 5 is_stmt 1 view .LVU796
 715:Src/pb_encode.c **** #endif
 2885              		.loc 1 715 22 is_stmt 0 view .LVU797
 2886 0072 0593     		str	r3, [sp, #20]
 718:Src/pb_encode.c ****     
 2887              		.loc 1 718 5 is_stmt 1 view .LVU798
ARM GAS  C:\Users\grgcz\AppData\Local\Temp\ccHl8fYU.s 			page 78


 718:Src/pb_encode.c ****     
 2888              		.loc 1 718 14 is_stmt 0 view .LVU799
 2889 0074 3A46     		mov	r2, r7
 2890 0076 3146     		mov	r1, r6
 2891 0078 01A8     		add	r0, sp, #4
 2892 007a FFF7FEFF 		bl	pb_encode
 2893              	.LVL284:
 2894 007e 0346     		mov	r3, r0
 2895              	.LVL285:
 720:Src/pb_encode.c ****     stream->state = substream.state;
 2896              		.loc 1 720 5 is_stmt 1 view .LVU800
 720:Src/pb_encode.c ****     stream->state = substream.state;
 2897              		.loc 1 720 39 is_stmt 0 view .LVU801
 2898 0080 0499     		ldr	r1, [sp, #16]
 720:Src/pb_encode.c ****     stream->state = substream.state;
 2899              		.loc 1 720 27 view .LVU802
 2900 0082 E268     		ldr	r2, [r4, #12]
 2901 0084 0A44     		add	r2, r2, r1
 2902 0086 E260     		str	r2, [r4, #12]
 721:Src/pb_encode.c **** #ifndef PB_NO_ERRMSG
 2903              		.loc 1 721 5 is_stmt 1 view .LVU803
 721:Src/pb_encode.c **** #ifndef PB_NO_ERRMSG
 2904              		.loc 1 721 30 is_stmt 0 view .LVU804
 2905 0088 029A     		ldr	r2, [sp, #8]
 721:Src/pb_encode.c **** #ifndef PB_NO_ERRMSG
 2906              		.loc 1 721 19 view .LVU805
 2907 008a 6260     		str	r2, [r4, #4]
 723:Src/pb_encode.c **** #endif
 2908              		.loc 1 723 5 is_stmt 1 view .LVU806
 723:Src/pb_encode.c **** #endif
 2909              		.loc 1 723 31 is_stmt 0 view .LVU807
 2910 008c 059A     		ldr	r2, [sp, #20]
 723:Src/pb_encode.c **** #endif
 2911              		.loc 1 723 20 view .LVU808
 2912 008e 2261     		str	r2, [r4, #16]
 726:Src/pb_encode.c ****         PB_RETURN_ERROR(stream, "submsg size changed");
 2913              		.loc 1 726 5 is_stmt 1 view .LVU809
 726:Src/pb_encode.c ****         PB_RETURN_ERROR(stream, "submsg size changed");
 2914              		.loc 1 726 8 is_stmt 0 view .LVU810
 2915 0090 A942     		cmp	r1, r5
 2916 0092 C7D0     		beq	.L274
 727:Src/pb_encode.c ****     
 2917              		.loc 1 727 9 is_stmt 1 view .LVU811
 2918 0094 12B1     		cbz	r2, .L282
 2919              	.L278:
 727:Src/pb_encode.c ****     
 2920              		.loc 1 727 9 is_stmt 0 discriminator 4 view .LVU812
 2921 0096 2261     		str	r2, [r4, #16]
 2922 0098 0023     		movs	r3, #0
 2923              	.LVL286:
 727:Src/pb_encode.c ****     
 2924              		.loc 1 727 9 discriminator 4 view .LVU813
 2925 009a C3E7     		b	.L274
 2926              	.LVL287:
 2927              	.L282:
 727:Src/pb_encode.c ****     
 2928              		.loc 1 727 9 view .LVU814
ARM GAS  C:\Users\grgcz\AppData\Local\Temp\ccHl8fYU.s 			page 79


 2929 009c 014A     		ldr	r2, .L283+4
 2930 009e FAE7     		b	.L278
 2931              	.L284:
 2932              		.align	2
 2933              	.L283:
 2934 00a0 00000000 		.word	.LC1
 2935 00a4 00000000 		.word	.LC8
 2936              		.cfi_endproc
 2937              	.LFE22:
 2939              		.section	.text.pb_enc_submessage,"ax",%progbits
 2940              		.align	1
 2941              		.syntax unified
 2942              		.thumb
 2943              		.thumb_func
 2944              		.fpu fpv4-sp-d16
 2946              	pb_enc_submessage:
 2947              	.LVL288:
 2948              	.LFB30:
 858:Src/pb_encode.c ****     if (field->ptr == NULL)
 2949              		.loc 1 858 1 is_stmt 1 view -0
 2950              		.cfi_startproc
 2951              		@ args = 0, pretend = 0, frame = 0
 2952              		@ frame_needed = 0, uses_anonymous_args = 0
 858:Src/pb_encode.c ****     if (field->ptr == NULL)
 2953              		.loc 1 858 1 is_stmt 0 view .LVU816
 2954 0000 08B5     		push	{r3, lr}
 2955              	.LCFI58:
 2956              		.cfi_def_cfa_offset 8
 2957              		.cfi_offset 3, -8
 2958              		.cfi_offset 14, -4
 859:Src/pb_encode.c ****         PB_RETURN_ERROR(stream, "invalid field descriptor");
 2959              		.loc 1 859 5 is_stmt 1 view .LVU817
 859:Src/pb_encode.c ****         PB_RETURN_ERROR(stream, "invalid field descriptor");
 2960              		.loc 1 859 14 is_stmt 0 view .LVU818
 2961 0002 D1F80B10 		ldr	r1, [r1, #11]	@ unaligned
 2962              	.LVL289:
 859:Src/pb_encode.c ****         PB_RETURN_ERROR(stream, "invalid field descriptor");
 2963              		.loc 1 859 8 view .LVU819
 2964 0006 11B1     		cbz	r1, .L290
 862:Src/pb_encode.c **** }
 2965              		.loc 1 862 5 is_stmt 1 view .LVU820
 862:Src/pb_encode.c **** }
 2966              		.loc 1 862 12 is_stmt 0 view .LVU821
 2967 0008 FFF7FEFF 		bl	pb_encode_submessage
 2968              	.LVL290:
 2969              	.L288:
 863:Src/pb_encode.c **** 
 2970              		.loc 1 863 1 view .LVU822
 2971 000c 08BD     		pop	{r3, pc}
 2972              	.LVL291:
 2973              	.L290:
 860:Src/pb_encode.c ****     
 2974              		.loc 1 860 9 is_stmt 1 view .LVU823
 2975 000e 0369     		ldr	r3, [r0, #16]
 2976 0010 13B1     		cbz	r3, .L291
 2977              	.L287:
 860:Src/pb_encode.c ****     
ARM GAS  C:\Users\grgcz\AppData\Local\Temp\ccHl8fYU.s 			page 80


 2978              		.loc 1 860 9 is_stmt 0 discriminator 4 view .LVU824
 2979 0012 0361     		str	r3, [r0, #16]
 2980 0014 0020     		movs	r0, #0
 2981              	.LVL292:
 860:Src/pb_encode.c ****     
 2982              		.loc 1 860 9 discriminator 4 view .LVU825
 2983 0016 F9E7     		b	.L288
 2984              	.LVL293:
 2985              	.L291:
 860:Src/pb_encode.c ****     
 2986              		.loc 1 860 9 view .LVU826
 2987 0018 004B     		ldr	r3, .L292
 2988 001a FAE7     		b	.L287
 2989              	.L293:
 2990              		.align	2
 2991              	.L292:
 2992 001c 00000000 		.word	.LC9
 2993              		.cfi_endproc
 2994              	.LFE30:
 2996              		.section	.text.pb_encode_delimited,"ax",%progbits
 2997              		.align	1
 2998              		.global	pb_encode_delimited
 2999              		.syntax unified
 3000              		.thumb
 3001              		.thumb_func
 3002              		.fpu fpv4-sp-d16
 3004              	pb_encode_delimited:
 3005              	.LVL294:
 3006              	.LFB12:
 519:Src/pb_encode.c ****     return pb_encode_submessage(stream, fields, src_struct);
 3007              		.loc 1 519 1 is_stmt 1 view -0
 3008              		.cfi_startproc
 3009              		@ args = 0, pretend = 0, frame = 0
 3010              		@ frame_needed = 0, uses_anonymous_args = 0
 519:Src/pb_encode.c ****     return pb_encode_submessage(stream, fields, src_struct);
 3011              		.loc 1 519 1 is_stmt 0 view .LVU828
 3012 0000 08B5     		push	{r3, lr}
 3013              	.LCFI59:
 3014              		.cfi_def_cfa_offset 8
 3015              		.cfi_offset 3, -8
 3016              		.cfi_offset 14, -4
 520:Src/pb_encode.c **** }
 3017              		.loc 1 520 5 is_stmt 1 view .LVU829
 520:Src/pb_encode.c **** }
 3018              		.loc 1 520 12 is_stmt 0 view .LVU830
 3019 0002 FFF7FEFF 		bl	pb_encode_submessage
 3020              	.LVL295:
 521:Src/pb_encode.c **** 
 3021              		.loc 1 521 1 view .LVU831
 3022 0006 08BD     		pop	{r3, pc}
 3023              		.cfi_endproc
 3024              	.LFE12:
 3026              		.section	.rodata.PB_ENCODERS,"a"
 3027              		.align	2
 3028              		.set	.LANCHOR0,. + 0
 3031              	PB_ENCODERS:
 3032 0000 00000000 		.word	pb_enc_varint
ARM GAS  C:\Users\grgcz\AppData\Local\Temp\ccHl8fYU.s 			page 81


 3033 0004 00000000 		.word	pb_enc_uvarint
 3034 0008 00000000 		.word	pb_enc_svarint
 3035 000c 00000000 		.word	pb_enc_fixed32
 3036 0010 00000000 		.word	pb_enc_fixed64
 3037 0014 00000000 		.word	pb_enc_bytes
 3038 0018 00000000 		.word	pb_enc_string
 3039 001c 00000000 		.word	pb_enc_submessage
 3040 0020 00000000 		.word	0
 3041 0024 00000000 		.word	pb_enc_fixed_length_bytes
 3042              		.section	.rodata.encode_array.str1.4,"aMS",%progbits,1
 3043              		.align	2
 3044              	.LC5:
 3045 0000 61727261 		.ascii	"array max size exceeded\000"
 3045      79206D61 
 3045      78207369 
 3045      7A652065 
 3045      78636565 
 3046              		.section	.rodata.encode_basic_field.str1.4,"aMS",%progbits,1
 3047              		.align	2
 3048              	.LC6:
 3049 0000 6D697373 		.ascii	"missing required field\000"
 3049      696E6720 
 3049      72657175 
 3049      69726564 
 3049      20666965 
 3050              		.section	.rodata.encode_callback_field.str1.4,"aMS",%progbits,1
 3051              		.align	2
 3052              	.LC0:
 3053 0000 63616C6C 		.ascii	"callback error\000"
 3053      6261636B 
 3053      20657272 
 3053      6F7200
 3054              		.section	.rodata.pb_enc_bytes.str1.4,"aMS",%progbits,1
 3055              		.align	2
 3056              	.LC7:
 3057 0000 62797465 		.ascii	"bytes size exceeded\000"
 3057      73207369 
 3057      7A652065 
 3057      78636565 
 3057      64656400 
 3058              		.section	.rodata.pb_enc_submessage.str1.4,"aMS",%progbits,1
 3059              		.align	2
 3060              	.LC9:
 3061 0000 696E7661 		.ascii	"invalid field descriptor\000"
 3061      6C696420 
 3061      6669656C 
 3061      64206465 
 3061      73637269 
 3062              		.section	.rodata.pb_enc_uvarint.str1.4,"aMS",%progbits,1
 3063              		.align	2
 3064              	.LC3:
 3065 0000 696E7661 		.ascii	"invalid data_size\000"
 3065      6C696420 
 3065      64617461 
 3065      5F73697A 
 3065      6500
 3066              		.section	.rodata.pb_encode_submessage.str1.4,"aMS",%progbits,1
ARM GAS  C:\Users\grgcz\AppData\Local\Temp\ccHl8fYU.s 			page 82


 3067              		.align	2
 3068              	.LC8:
 3069 0000 7375626D 		.ascii	"submsg size changed\000"
 3069      73672073 
 3069      697A6520 
 3069      6368616E 
 3069      67656400 
 3070              		.section	.rodata.pb_encode_tag_for_field.str1.4,"aMS",%progbits,1
 3071              		.align	2
 3072              	.LC4:
 3073 0000 696E7661 		.ascii	"invalid field type\000"
 3073      6C696420 
 3073      6669656C 
 3073      64207479 
 3073      706500
 3074              		.section	.rodata.pb_write.str1.4,"aMS",%progbits,1
 3075              		.align	2
 3076              	.LC1:
 3077 0000 73747265 		.ascii	"stream full\000"
 3077      616D2066 
 3077      756C6C00 
 3078              	.LC2:
 3079 000c 696F2065 		.ascii	"io error\000"
 3079      72726F72 
 3079      00
 3080              		.text
 3081              	.Letext0:
 3082              		.file 2 "c:\\program files (x86)\\gnu tools arm embedded\\8 2019-q3-update\\arm-none-eabi\\include
 3083              		.file 3 "c:\\program files (x86)\\gnu tools arm embedded\\8 2019-q3-update\\arm-none-eabi\\include
 3084              		.file 4 "c:\\program files (x86)\\gnu tools arm embedded\\8 2019-q3-update\\arm-none-eabi\\include
 3085              		.file 5 "c:\\program files (x86)\\gnu tools arm embedded\\8 2019-q3-update\\lib\\gcc\\arm-none-eab
 3086              		.file 6 "c:\\program files (x86)\\gnu tools arm embedded\\8 2019-q3-update\\arm-none-eabi\\include
 3087              		.file 7 "c:\\program files (x86)\\gnu tools arm embedded\\8 2019-q3-update\\arm-none-eabi\\include
 3088              		.file 8 "c:\\program files (x86)\\gnu tools arm embedded\\8 2019-q3-update\\arm-none-eabi\\include
 3089              		.file 9 "Inc/pb.h"
 3090              		.file 10 "Inc/pb_encode.h"
 3091              		.file 11 "Inc/pb_common.h"
ARM GAS  C:\Users\grgcz\AppData\Local\Temp\ccHl8fYU.s 			page 83

